              	; --------------------------------------
              	; zasm: assemble "probe.asm"
              	; date: 2023-06-11 17:32:27
              	; --------------------------------------


              	; This program is designed to be loaded into memory, and catch stray jumps
              	; When a jump is caught, it will be reported to the operator
              	
              	; Equates
0005:         	bdos	equ	0x0005
005C:         	fcb	equ	0x005C
              	
0001:         	b_coin	equ	0x01
0002:         	b_cout	equ	0x02
0009:         	b_print	equ	0x09
000F:         	b_open	equ	0x0F
0010:         	b_close	equ	0x10
0014:         	b_read	equ	0x14
0015:         	b_write	equ	0x15
0016:         	b_make	equ	0x16
001A:         	b_dma	equ	0x1A
              	
              	; Program start
0100:         		org	0x0100
              		
0100: CD8C98  		call	catch
0103: CD8C98  		call	catch
0106: CD8C98  		call	catch
0109: CD8C98  		call	catch
010C: CD8C98  		call	catch
010F: CD8C98  		call	catch
0112: CD8C98  		call	catch
0115: CD8C98  		call	catch
0118: CD8C98  		call	catch
011B: CD8C98  		call	catch
011E: CD8C98  		call	catch
0121: CD8C98  		call	catch
0124: CD8C98  		call	catch
0127: CD8C98  		call	catch
012A: CD8C98  		call	catch
012D: CD8C98  		call	catch
0130: CD8C98  		call	catch
0133: CD8C98  		call	catch
0136: CD8C98  		call	catch
0139: CD8C98  		call	catch
013C: CD8C98  		call	catch
013F: CD8C98  		call	catch
0142: CD8C98  		call	catch
0145: CD8C98  		call	catch
0148: CD8C98  		call	catch
014B: CD8C98  		call	catch
014E: CD8C98  		call	catch
0151: CD8C98  		call	catch
0154: CD8C98  		call	catch
0157: CD8C98  		call	catch
015A: CD8C98  		call	catch
015D: CD8C98  		call	catch
0160: CD8C98  		call	catch
0163: CD8C98  		call	catch
0166: CD8C98  		call	catch
0169: CD8C98  		call	catch
016C: CD8C98  		call	catch
016F: CD8C98  		call	catch
0172: CD8C98  		call	catch
0175: CD8C98  		call	catch
0178: CD8C98  		call	catch
017B: CD8C98  		call	catch
017E: CD8C98  		call	catch
0181: CD8C98  		call	catch
0184: CD8C98  		call	catch
0187: CD8C98  		call	catch
018A: CD8C98  		call	catch
018D: CD8C98  		call	catch
0190: CD8C98  		call	catch
0193: CD8C98  		call	catch
0196: CD8C98  		call	catch
0199: CD8C98  		call	catch
019C: CD8C98  		call	catch
019F: CD8C98  		call	catch
01A2: CD8C98  		call	catch
01A5: CD8C98  		call	catch
01A8: CD8C98  		call	catch
01AB: CD8C98  		call	catch
01AE: CD8C98  		call	catch
01B1: CD8C98  		call	catch
01B4: CD8C98  		call	catch
01B7: CD8C98  		call	catch
01BA: CD8C98  		call	catch
01BD: CD8C98  		call	catch
01C0: CD8C98  		call	catch
01C3: CD8C98  		call	catch
01C6: CD8C98  		call	catch
01C9: CD8C98  		call	catch
01CC: CD8C98  		call	catch
01CF: CD8C98  		call	catch
01D2: CD8C98  		call	catch
01D5: CD8C98  		call	catch
01D8: CD8C98  		call	catch
01DB: CD8C98  		call	catch
01DE: CD8C98  		call	catch
01E1: CD8C98  		call	catch
01E4: CD8C98  		call	catch
01E7: CD8C98  		call	catch
01EA: CD8C98  		call	catch
01ED: CD8C98  		call	catch
01F0: CD8C98  		call	catch
01F3: CD8C98  		call	catch
01F6: CD8C98  		call	catch
01F9: CD8C98  		call	catch
01FC: CD8C98  		call	catch
01FF: CD8C98  		call	catch
0202: CD8C98  		call	catch
0205: CD8C98  		call	catch
0208: CD8C98  		call	catch
020B: CD8C98  		call	catch
020E: CD8C98  		call	catch
0211: CD8C98  		call	catch
0214: CD8C98  		call	catch
0217: CD8C98  		call	catch
021A: CD8C98  		call	catch
021D: CD8C98  		call	catch
0220: CD8C98  		call	catch
0223: CD8C98  		call	catch
0226: CD8C98  		call	catch
0229: CD8C98  		call	catch
022C: CD8C98  		call	catch
022F: CD8C98  		call	catch
0232: CD8C98  		call	catch
0235: CD8C98  		call	catch
0238: CD8C98  		call	catch
023B: CD8C98  		call	catch
023E: CD8C98  		call	catch
0241: CD8C98  		call	catch
0244: CD8C98  		call	catch
0247: CD8C98  		call	catch
024A: CD8C98  		call	catch
024D: CD8C98  		call	catch
0250: CD8C98  		call	catch
0253: CD8C98  		call	catch
0256: CD8C98  		call	catch
0259: CD8C98  		call	catch
025C: CD8C98  		call	catch
025F: CD8C98  		call	catch
0262: CD8C98  		call	catch
0265: CD8C98  		call	catch
0268: CD8C98  		call	catch
026B: CD8C98  		call	catch
026E: CD8C98  		call	catch
0271: CD8C98  		call	catch
0274: CD8C98  		call	catch
0277: CD8C98  		call	catch
027A: CD8C98  		call	catch
027D: CD8C98  		call	catch
0280: CD8C98  		call	catch
0283: CD8C98  		call	catch
0286: CD8C98  		call	catch
0289: CD8C98  		call	catch
028C: CD8C98  		call	catch
028F: CD8C98  		call	catch
0292: CD8C98  		call	catch
0295: CD8C98  		call	catch
0298: CD8C98  		call	catch
029B: CD8C98  		call	catch
029E: CD8C98  		call	catch
02A1: CD8C98  		call	catch
02A4: CD8C98  		call	catch
02A7: CD8C98  		call	catch
02AA: CD8C98  		call	catch
02AD: CD8C98  		call	catch
02B0: CD8C98  		call	catch
02B3: CD8C98  		call	catch
02B6: CD8C98  		call	catch
02B9: CD8C98  		call	catch
02BC: CD8C98  		call	catch
02BF: CD8C98  		call	catch
02C2: CD8C98  		call	catch
02C5: CD8C98  		call	catch
02C8: CD8C98  		call	catch
02CB: CD8C98  		call	catch
02CE: CD8C98  		call	catch
02D1: CD8C98  		call	catch
02D4: CD8C98  		call	catch
02D7: CD8C98  		call	catch
02DA: CD8C98  		call	catch
02DD: CD8C98  		call	catch
02E0: CD8C98  		call	catch
02E3: CD8C98  		call	catch
02E6: CD8C98  		call	catch
02E9: CD8C98  		call	catch
02EC: CD8C98  		call	catch
02EF: CD8C98  		call	catch
02F2: CD8C98  		call	catch
02F5: CD8C98  		call	catch
02F8: CD8C98  		call	catch
02FB: CD8C98  		call	catch
02FE: CD8C98  		call	catch
0301: CD8C98  		call	catch
0304: CD8C98  		call	catch
0307: CD8C98  		call	catch
030A: CD8C98  		call	catch
030D: CD8C98  		call	catch
0310: CD8C98  		call	catch
0313: CD8C98  		call	catch
0316: CD8C98  		call	catch
0319: CD8C98  		call	catch
031C: CD8C98  		call	catch
031F: CD8C98  		call	catch
0322: CD8C98  		call	catch
0325: CD8C98  		call	catch
0328: CD8C98  		call	catch
032B: CD8C98  		call	catch
032E: CD8C98  		call	catch
0331: CD8C98  		call	catch
0334: CD8C98  		call	catch
0337: CD8C98  		call	catch
033A: CD8C98  		call	catch
033D: CD8C98  		call	catch
0340: CD8C98  		call	catch
0343: CD8C98  		call	catch
0346: CD8C98  		call	catch
0349: CD8C98  		call	catch
034C: CD8C98  		call	catch
034F: CD8C98  		call	catch
0352: CD8C98  		call	catch
0355: CD8C98  		call	catch
0358: CD8C98  		call	catch
035B: CD8C98  		call	catch
035E: CD8C98  		call	catch
0361: CD8C98  		call	catch
0364: CD8C98  		call	catch
0367: CD8C98  		call	catch
036A: CD8C98  		call	catch
036D: CD8C98  		call	catch
0370: CD8C98  		call	catch
0373: CD8C98  		call	catch
0376: CD8C98  		call	catch
0379: CD8C98  		call	catch
037C: CD8C98  		call	catch
037F: CD8C98  		call	catch
0382: CD8C98  		call	catch
0385: CD8C98  		call	catch
0388: CD8C98  		call	catch
038B: CD8C98  		call	catch
038E: CD8C98  		call	catch
0391: CD8C98  		call	catch
0394: CD8C98  		call	catch
0397: CD8C98  		call	catch
039A: CD8C98  		call	catch
039D: CD8C98  		call	catch
03A0: CD8C98  		call	catch
03A3: CD8C98  		call	catch
03A6: CD8C98  		call	catch
03A9: CD8C98  		call	catch
03AC: CD8C98  		call	catch
03AF: CD8C98  		call	catch
03B2: CD8C98  		call	catch
03B5: CD8C98  		call	catch
03B8: CD8C98  		call	catch
03BB: CD8C98  		call	catch
03BE: CD8C98  		call	catch
03C1: CD8C98  		call	catch
03C4: CD8C98  		call	catch
03C7: CD8C98  		call	catch
03CA: CD8C98  		call	catch
03CD: CD8C98  		call	catch
03D0: CD8C98  		call	catch
03D3: CD8C98  		call	catch
03D6: CD8C98  		call	catch
03D9: CD8C98  		call	catch
03DC: CD8C98  		call	catch
03DF: CD8C98  		call	catch
03E2: CD8C98  		call	catch
03E5: CD8C98  		call	catch
03E8: CD8C98  		call	catch
03EB: CD8C98  		call	catch
03EE: CD8C98  		call	catch
03F1: CD8C98  		call	catch
03F4: CD8C98  		call	catch
03F7: CD8C98  		call	catch
03FA: CD8C98  		call	catch
03FD: CD8C98  		call	catch
0400: CD8C98  		call	catch
0403: CD8C98  		call	catch
0406: CD8C98  		call	catch
0409: CD8C98  		call	catch
040C: CD8C98  		call	catch
040F: CD8C98  		call	catch
0412: CD8C98  		call	catch
0415: CD8C98  		call	catch
0418: CD8C98  		call	catch
041B: CD8C98  		call	catch
041E: CD8C98  		call	catch
0421: CD8C98  		call	catch
0424: CD8C98  		call	catch
0427: CD8C98  		call	catch
042A: CD8C98  		call	catch
042D: CD8C98  		call	catch
0430: CD8C98  		call	catch
0433: CD8C98  		call	catch
0436: CD8C98  		call	catch
0439: CD8C98  		call	catch
043C: CD8C98  		call	catch
043F: CD8C98  		call	catch
0442: CD8C98  		call	catch
0445: CD8C98  		call	catch
0448: CD8C98  		call	catch
044B: CD8C98  		call	catch
044E: CD8C98  		call	catch
0451: CD8C98  		call	catch
0454: CD8C98  		call	catch
0457: CD8C98  		call	catch
045A: CD8C98  		call	catch
045D: CD8C98  		call	catch
0460: CD8C98  		call	catch
0463: CD8C98  		call	catch
0466: CD8C98  		call	catch
0469: CD8C98  		call	catch
046C: CD8C98  		call	catch
046F: CD8C98  		call	catch
0472: CD8C98  		call	catch
0475: CD8C98  		call	catch
0478: CD8C98  		call	catch
047B: CD8C98  		call	catch
047E: CD8C98  		call	catch
0481: CD8C98  		call	catch
0484: CD8C98  		call	catch
0487: CD8C98  		call	catch
048A: CD8C98  		call	catch
048D: CD8C98  		call	catch
0490: CD8C98  		call	catch
0493: CD8C98  		call	catch
0496: CD8C98  		call	catch
0499: CD8C98  		call	catch
049C: CD8C98  		call	catch
049F: CD8C98  		call	catch
04A2: CD8C98  		call	catch
04A5: CD8C98  		call	catch
04A8: CD8C98  		call	catch
04AB: CD8C98  		call	catch
04AE: CD8C98  		call	catch
04B1: CD8C98  		call	catch
04B4: CD8C98  		call	catch
04B7: CD8C98  		call	catch
04BA: CD8C98  		call	catch
04BD: CD8C98  		call	catch
04C0: CD8C98  		call	catch
04C3: CD8C98  		call	catch
04C6: CD8C98  		call	catch
04C9: CD8C98  		call	catch
04CC: CD8C98  		call	catch
04CF: CD8C98  		call	catch
04D2: CD8C98  		call	catch
04D5: CD8C98  		call	catch
04D8: CD8C98  		call	catch
04DB: CD8C98  		call	catch
04DE: CD8C98  		call	catch
04E1: CD8C98  		call	catch
04E4: CD8C98  		call	catch
04E7: CD8C98  		call	catch
04EA: CD8C98  		call	catch
04ED: CD8C98  		call	catch
04F0: CD8C98  		call	catch
04F3: CD8C98  		call	catch
04F6: CD8C98  		call	catch
04F9: CD8C98  		call	catch
04FC: CD8C98  		call	catch
04FF: CD8C98  		call	catch
0502: CD8C98  		call	catch
0505: CD8C98  		call	catch
0508: CD8C98  		call	catch
050B: CD8C98  		call	catch
050E: CD8C98  		call	catch
0511: CD8C98  		call	catch
0514: CD8C98  		call	catch
0517: CD8C98  		call	catch
051A: CD8C98  		call	catch
051D: CD8C98  		call	catch
0520: CD8C98  		call	catch
0523: CD8C98  		call	catch
0526: CD8C98  		call	catch
0529: CD8C98  		call	catch
052C: CD8C98  		call	catch
052F: CD8C98  		call	catch
0532: CD8C98  		call	catch
0535: CD8C98  		call	catch
0538: CD8C98  		call	catch
053B: CD8C98  		call	catch
053E: CD8C98  		call	catch
0541: CD8C98  		call	catch
0544: CD8C98  		call	catch
0547: CD8C98  		call	catch
054A: CD8C98  		call	catch
054D: CD8C98  		call	catch
0550: CD8C98  		call	catch
0553: CD8C98  		call	catch
0556: CD8C98  		call	catch
0559: CD8C98  		call	catch
055C: CD8C98  		call	catch
055F: CD8C98  		call	catch
0562: CD8C98  		call	catch
0565: CD8C98  		call	catch
0568: CD8C98  		call	catch
056B: CD8C98  		call	catch
056E: CD8C98  		call	catch
0571: CD8C98  		call	catch
0574: CD8C98  		call	catch
0577: CD8C98  		call	catch
057A: CD8C98  		call	catch
057D: CD8C98  		call	catch
0580: CD8C98  		call	catch
0583: CD8C98  		call	catch
0586: CD8C98  		call	catch
0589: CD8C98  		call	catch
058C: CD8C98  		call	catch
058F: CD8C98  		call	catch
0592: CD8C98  		call	catch
0595: CD8C98  		call	catch
0598: CD8C98  		call	catch
059B: CD8C98  		call	catch
059E: CD8C98  		call	catch
05A1: CD8C98  		call	catch
05A4: CD8C98  		call	catch
05A7: CD8C98  		call	catch
05AA: CD8C98  		call	catch
05AD: CD8C98  		call	catch
05B0: CD8C98  		call	catch
05B3: CD8C98  		call	catch
05B6: CD8C98  		call	catch
05B9: CD8C98  		call	catch
05BC: CD8C98  		call	catch
05BF: CD8C98  		call	catch
05C2: CD8C98  		call	catch
05C5: CD8C98  		call	catch
05C8: CD8C98  		call	catch
05CB: CD8C98  		call	catch
05CE: CD8C98  		call	catch
05D1: CD8C98  		call	catch
05D4: CD8C98  		call	catch
05D7: CD8C98  		call	catch
05DA: CD8C98  		call	catch
05DD: CD8C98  		call	catch
05E0: CD8C98  		call	catch
05E3: CD8C98  		call	catch
05E6: CD8C98  		call	catch
05E9: CD8C98  		call	catch
05EC: CD8C98  		call	catch
05EF: CD8C98  		call	catch
05F2: CD8C98  		call	catch
05F5: CD8C98  		call	catch
05F8: CD8C98  		call	catch
05FB: CD8C98  		call	catch
05FE: CD8C98  		call	catch
0601: CD8C98  		call	catch
0604: CD8C98  		call	catch
0607: CD8C98  		call	catch
060A: CD8C98  		call	catch
060D: CD8C98  		call	catch
0610: CD8C98  		call	catch
0613: CD8C98  		call	catch
0616: CD8C98  		call	catch
0619: CD8C98  		call	catch
061C: CD8C98  		call	catch
061F: CD8C98  		call	catch
0622: CD8C98  		call	catch
0625: CD8C98  		call	catch
0628: CD8C98  		call	catch
062B: CD8C98  		call	catch
062E: CD8C98  		call	catch
0631: CD8C98  		call	catch
0634: CD8C98  		call	catch
0637: CD8C98  		call	catch
063A: CD8C98  		call	catch
063D: CD8C98  		call	catch
0640: CD8C98  		call	catch
0643: CD8C98  		call	catch
0646: CD8C98  		call	catch
0649: CD8C98  		call	catch
064C: CD8C98  		call	catch
064F: CD8C98  		call	catch
0652: CD8C98  		call	catch
0655: CD8C98  		call	catch
0658: CD8C98  		call	catch
065B: CD8C98  		call	catch
065E: CD8C98  		call	catch
0661: CD8C98  		call	catch
0664: CD8C98  		call	catch
0667: CD8C98  		call	catch
066A: CD8C98  		call	catch
066D: CD8C98  		call	catch
0670: CD8C98  		call	catch
0673: CD8C98  		call	catch
0676: CD8C98  		call	catch
0679: CD8C98  		call	catch
067C: CD8C98  		call	catch
067F: CD8C98  		call	catch
0682: CD8C98  		call	catch
0685: CD8C98  		call	catch
0688: CD8C98  		call	catch
068B: CD8C98  		call	catch
068E: CD8C98  		call	catch
0691: CD8C98  		call	catch
0694: CD8C98  		call	catch
0697: CD8C98  		call	catch
069A: CD8C98  		call	catch
069D: CD8C98  		call	catch
06A0: CD8C98  		call	catch
06A3: CD8C98  		call	catch
06A6: CD8C98  		call	catch
06A9: CD8C98  		call	catch
06AC: CD8C98  		call	catch
06AF: CD8C98  		call	catch
06B2: CD8C98  		call	catch
06B5: CD8C98  		call	catch
06B8: CD8C98  		call	catch
06BB: CD8C98  		call	catch
06BE: CD8C98  		call	catch
06C1: CD8C98  		call	catch
06C4: CD8C98  		call	catch
06C7: CD8C98  		call	catch
06CA: CD8C98  		call	catch
06CD: CD8C98  		call	catch
06D0: CD8C98  		call	catch
06D3: CD8C98  		call	catch
06D6: CD8C98  		call	catch
06D9: CD8C98  		call	catch
06DC: CD8C98  		call	catch
06DF: CD8C98  		call	catch
06E2: CD8C98  		call	catch
06E5: CD8C98  		call	catch
06E8: CD8C98  		call	catch
06EB: CD8C98  		call	catch
06EE: CD8C98  		call	catch
06F1: CD8C98  		call	catch
06F4: CD8C98  		call	catch
06F7: CD8C98  		call	catch
06FA: CD8C98  		call	catch
06FD: CD8C98  		call	catch
0700: CD8C98  		call	catch
0703: CD8C98  		call	catch
0706: CD8C98  		call	catch
0709: CD8C98  		call	catch
070C: CD8C98  		call	catch
070F: CD8C98  		call	catch
0712: CD8C98  		call	catch
0715: CD8C98  		call	catch
0718: CD8C98  		call	catch
071B: CD8C98  		call	catch
071E: CD8C98  		call	catch
0721: CD8C98  		call	catch
0724: CD8C98  		call	catch
0727: CD8C98  		call	catch
072A: CD8C98  		call	catch
072D: CD8C98  		call	catch
0730: CD8C98  		call	catch
0733: CD8C98  		call	catch
0736: CD8C98  		call	catch
0739: CD8C98  		call	catch
073C: CD8C98  		call	catch
073F: CD8C98  		call	catch
0742: CD8C98  		call	catch
0745: CD8C98  		call	catch
0748: CD8C98  		call	catch
074B: CD8C98  		call	catch
074E: CD8C98  		call	catch
0751: CD8C98  		call	catch
0754: CD8C98  		call	catch
0757: CD8C98  		call	catch
075A: CD8C98  		call	catch
075D: CD8C98  		call	catch
0760: CD8C98  		call	catch
0763: CD8C98  		call	catch
0766: CD8C98  		call	catch
0769: CD8C98  		call	catch
076C: CD8C98  		call	catch
076F: CD8C98  		call	catch
0772: CD8C98  		call	catch
0775: CD8C98  		call	catch
0778: CD8C98  		call	catch
077B: CD8C98  		call	catch
077E: CD8C98  		call	catch
0781: CD8C98  		call	catch
0784: CD8C98  		call	catch
0787: CD8C98  		call	catch
078A: CD8C98  		call	catch
078D: CD8C98  		call	catch
0790: CD8C98  		call	catch
0793: CD8C98  		call	catch
0796: CD8C98  		call	catch
0799: CD8C98  		call	catch
079C: CD8C98  		call	catch
079F: CD8C98  		call	catch
07A2: CD8C98  		call	catch
07A5: CD8C98  		call	catch
07A8: CD8C98  		call	catch
07AB: CD8C98  		call	catch
07AE: CD8C98  		call	catch
07B1: CD8C98  		call	catch
07B4: CD8C98  		call	catch
07B7: CD8C98  		call	catch
07BA: CD8C98  		call	catch
07BD: CD8C98  		call	catch
07C0: CD8C98  		call	catch
07C3: CD8C98  		call	catch
07C6: CD8C98  		call	catch
07C9: CD8C98  		call	catch
07CC: CD8C98  		call	catch
07CF: CD8C98  		call	catch
07D2: CD8C98  		call	catch
07D5: CD8C98  		call	catch
07D8: CD8C98  		call	catch
07DB: CD8C98  		call	catch
07DE: CD8C98  		call	catch
07E1: CD8C98  		call	catch
07E4: CD8C98  		call	catch
07E7: CD8C98  		call	catch
07EA: CD8C98  		call	catch
07ED: CD8C98  		call	catch
07F0: CD8C98  		call	catch
07F3: CD8C98  		call	catch
07F6: CD8C98  		call	catch
07F9: CD8C98  		call	catch
07FC: CD8C98  		call	catch
07FF: CD8C98  		call	catch
0802: CD8C98  		call	catch
0805: CD8C98  		call	catch
0808: CD8C98  		call	catch
080B: CD8C98  		call	catch
080E: CD8C98  		call	catch
0811: CD8C98  		call	catch
0814: CD8C98  		call	catch
0817: CD8C98  		call	catch
081A: CD8C98  		call	catch
081D: CD8C98  		call	catch
0820: CD8C98  		call	catch
0823: CD8C98  		call	catch
0826: CD8C98  		call	catch
0829: CD8C98  		call	catch
082C: CD8C98  		call	catch
082F: CD8C98  		call	catch
0832: CD8C98  		call	catch
0835: CD8C98  		call	catch
0838: CD8C98  		call	catch
083B: CD8C98  		call	catch
083E: CD8C98  		call	catch
0841: CD8C98  		call	catch
0844: CD8C98  		call	catch
0847: CD8C98  		call	catch
084A: CD8C98  		call	catch
084D: CD8C98  		call	catch
0850: CD8C98  		call	catch
0853: CD8C98  		call	catch
0856: CD8C98  		call	catch
0859: CD8C98  		call	catch
085C: CD8C98  		call	catch
085F: CD8C98  		call	catch
0862: CD8C98  		call	catch
0865: CD8C98  		call	catch
0868: CD8C98  		call	catch
086B: CD8C98  		call	catch
086E: CD8C98  		call	catch
0871: CD8C98  		call	catch
0874: CD8C98  		call	catch
0877: CD8C98  		call	catch
087A: CD8C98  		call	catch
087D: CD8C98  		call	catch
0880: CD8C98  		call	catch
0883: CD8C98  		call	catch
0886: CD8C98  		call	catch
0889: CD8C98  		call	catch
088C: CD8C98  		call	catch
088F: CD8C98  		call	catch
0892: CD8C98  		call	catch
0895: CD8C98  		call	catch
0898: CD8C98  		call	catch
089B: CD8C98  		call	catch
089E: CD8C98  		call	catch
08A1: CD8C98  		call	catch
08A4: CD8C98  		call	catch
08A7: CD8C98  		call	catch
08AA: CD8C98  		call	catch
08AD: CD8C98  		call	catch
08B0: CD8C98  		call	catch
08B3: CD8C98  		call	catch
08B6: CD8C98  		call	catch
08B9: CD8C98  		call	catch
08BC: CD8C98  		call	catch
08BF: CD8C98  		call	catch
08C2: CD8C98  		call	catch
08C5: CD8C98  		call	catch
08C8: CD8C98  		call	catch
08CB: CD8C98  		call	catch
08CE: CD8C98  		call	catch
08D1: CD8C98  		call	catch
08D4: CD8C98  		call	catch
08D7: CD8C98  		call	catch
08DA: CD8C98  		call	catch
08DD: CD8C98  		call	catch
08E0: CD8C98  		call	catch
08E3: CD8C98  		call	catch
08E6: CD8C98  		call	catch
08E9: CD8C98  		call	catch
08EC: CD8C98  		call	catch
08EF: CD8C98  		call	catch
08F2: CD8C98  		call	catch
08F5: CD8C98  		call	catch
08F8: CD8C98  		call	catch
08FB: CD8C98  		call	catch
08FE: CD8C98  		call	catch
0901: CD8C98  		call	catch
0904: CD8C98  		call	catch
0907: CD8C98  		call	catch
090A: CD8C98  		call	catch
090D: CD8C98  		call	catch
0910: CD8C98  		call	catch
0913: CD8C98  		call	catch
0916: CD8C98  		call	catch
0919: CD8C98  		call	catch
091C: CD8C98  		call	catch
091F: CD8C98  		call	catch
0922: CD8C98  		call	catch
0925: CD8C98  		call	catch
0928: CD8C98  		call	catch
092B: CD8C98  		call	catch
092E: CD8C98  		call	catch
0931: CD8C98  		call	catch
0934: CD8C98  		call	catch
0937: CD8C98  		call	catch
093A: CD8C98  		call	catch
093D: CD8C98  		call	catch
0940: CD8C98  		call	catch
0943: CD8C98  		call	catch
0946: CD8C98  		call	catch
0949: CD8C98  		call	catch
094C: CD8C98  		call	catch
094F: CD8C98  		call	catch
0952: CD8C98  		call	catch
0955: CD8C98  		call	catch
0958: CD8C98  		call	catch
095B: CD8C98  		call	catch
095E: CD8C98  		call	catch
0961: CD8C98  		call	catch
0964: CD8C98  		call	catch
0967: CD8C98  		call	catch
096A: CD8C98  		call	catch
096D: CD8C98  		call	catch
0970: CD8C98  		call	catch
0973: CD8C98  		call	catch
0976: CD8C98  		call	catch
0979: CD8C98  		call	catch
097C: CD8C98  		call	catch
097F: CD8C98  		call	catch
0982: CD8C98  		call	catch
0985: CD8C98  		call	catch
0988: CD8C98  		call	catch
098B: CD8C98  		call	catch
098E: CD8C98  		call	catch
0991: CD8C98  		call	catch
0994: CD8C98  		call	catch
0997: CD8C98  		call	catch
099A: CD8C98  		call	catch
099D: CD8C98  		call	catch
09A0: CD8C98  		call	catch
09A3: CD8C98  		call	catch
09A6: CD8C98  		call	catch
09A9: CD8C98  		call	catch
09AC: CD8C98  		call	catch
09AF: CD8C98  		call	catch
09B2: CD8C98  		call	catch
09B5: CD8C98  		call	catch
09B8: CD8C98  		call	catch
09BB: CD8C98  		call	catch
09BE: CD8C98  		call	catch
09C1: CD8C98  		call	catch
09C4: CD8C98  		call	catch
09C7: CD8C98  		call	catch
09CA: CD8C98  		call	catch
09CD: CD8C98  		call	catch
09D0: CD8C98  		call	catch
09D3: CD8C98  		call	catch
09D6: CD8C98  		call	catch
09D9: CD8C98  		call	catch
09DC: CD8C98  		call	catch
09DF: CD8C98  		call	catch
09E2: CD8C98  		call	catch
09E5: CD8C98  		call	catch
09E8: CD8C98  		call	catch
09EB: CD8C98  		call	catch
09EE: CD8C98  		call	catch
09F1: CD8C98  		call	catch
09F4: CD8C98  		call	catch
09F7: CD8C98  		call	catch
09FA: CD8C98  		call	catch
09FD: CD8C98  		call	catch
0A00: CD8C98  		call	catch
0A03: CD8C98  		call	catch
0A06: CD8C98  		call	catch
0A09: CD8C98  		call	catch
0A0C: CD8C98  		call	catch
0A0F: CD8C98  		call	catch
0A12: CD8C98  		call	catch
0A15: CD8C98  		call	catch
0A18: CD8C98  		call	catch
0A1B: CD8C98  		call	catch
0A1E: CD8C98  		call	catch
0A21: CD8C98  		call	catch
0A24: CD8C98  		call	catch
0A27: CD8C98  		call	catch
0A2A: CD8C98  		call	catch
0A2D: CD8C98  		call	catch
0A30: CD8C98  		call	catch
0A33: CD8C98  		call	catch
0A36: CD8C98  		call	catch
0A39: CD8C98  		call	catch
0A3C: CD8C98  		call	catch
0A3F: CD8C98  		call	catch
0A42: CD8C98  		call	catch
0A45: CD8C98  		call	catch
0A48: CD8C98  		call	catch
0A4B: CD8C98  		call	catch
0A4E: CD8C98  		call	catch
0A51: CD8C98  		call	catch
0A54: CD8C98  		call	catch
0A57: CD8C98  		call	catch
0A5A: CD8C98  		call	catch
0A5D: CD8C98  		call	catch
0A60: CD8C98  		call	catch
0A63: CD8C98  		call	catch
0A66: CD8C98  		call	catch
0A69: CD8C98  		call	catch
0A6C: CD8C98  		call	catch
0A6F: CD8C98  		call	catch
0A72: CD8C98  		call	catch
0A75: CD8C98  		call	catch
0A78: CD8C98  		call	catch
0A7B: CD8C98  		call	catch
0A7E: CD8C98  		call	catch
0A81: CD8C98  		call	catch
0A84: CD8C98  		call	catch
0A87: CD8C98  		call	catch
0A8A: CD8C98  		call	catch
0A8D: CD8C98  		call	catch
0A90: CD8C98  		call	catch
0A93: CD8C98  		call	catch
0A96: CD8C98  		call	catch
0A99: CD8C98  		call	catch
0A9C: CD8C98  		call	catch
0A9F: CD8C98  		call	catch
0AA2: CD8C98  		call	catch
0AA5: CD8C98  		call	catch
0AA8: CD8C98  		call	catch
0AAB: CD8C98  		call	catch
0AAE: CD8C98  		call	catch
0AB1: CD8C98  		call	catch
0AB4: CD8C98  		call	catch
0AB7: CD8C98  		call	catch
0ABA: CD8C98  		call	catch
0ABD: CD8C98  		call	catch
0AC0: CD8C98  		call	catch
0AC3: CD8C98  		call	catch
0AC6: CD8C98  		call	catch
0AC9: CD8C98  		call	catch
0ACC: CD8C98  		call	catch
0ACF: CD8C98  		call	catch
0AD2: CD8C98  		call	catch
0AD5: CD8C98  		call	catch
0AD8: CD8C98  		call	catch
0ADB: CD8C98  		call	catch
0ADE: CD8C98  		call	catch
0AE1: CD8C98  		call	catch
0AE4: CD8C98  		call	catch
0AE7: CD8C98  		call	catch
0AEA: CD8C98  		call	catch
0AED: CD8C98  		call	catch
0AF0: CD8C98  		call	catch
0AF3: CD8C98  		call	catch
0AF6: CD8C98  		call	catch
0AF9: CD8C98  		call	catch
0AFC: CD8C98  		call	catch
0AFF: CD8C98  		call	catch
0B02: CD8C98  		call	catch
0B05: CD8C98  		call	catch
0B08: CD8C98  		call	catch
0B0B: CD8C98  		call	catch
0B0E: CD8C98  		call	catch
0B11: CD8C98  		call	catch
0B14: CD8C98  		call	catch
0B17: CD8C98  		call	catch
0B1A: CD8C98  		call	catch
0B1D: CD8C98  		call	catch
0B20: CD8C98  		call	catch
0B23: CD8C98  		call	catch
0B26: CD8C98  		call	catch
0B29: CD8C98  		call	catch
0B2C: CD8C98  		call	catch
0B2F: CD8C98  		call	catch
0B32: CD8C98  		call	catch
0B35: CD8C98  		call	catch
0B38: CD8C98  		call	catch
0B3B: CD8C98  		call	catch
0B3E: CD8C98  		call	catch
0B41: CD8C98  		call	catch
0B44: CD8C98  		call	catch
0B47: CD8C98  		call	catch
0B4A: CD8C98  		call	catch
0B4D: CD8C98  		call	catch
0B50: CD8C98  		call	catch
0B53: CD8C98  		call	catch
0B56: CD8C98  		call	catch
0B59: CD8C98  		call	catch
0B5C: CD8C98  		call	catch
0B5F: CD8C98  		call	catch
0B62: CD8C98  		call	catch
0B65: CD8C98  		call	catch
0B68: CD8C98  		call	catch
0B6B: CD8C98  		call	catch
0B6E: CD8C98  		call	catch
0B71: CD8C98  		call	catch
0B74: CD8C98  		call	catch
0B77: CD8C98  		call	catch
0B7A: CD8C98  		call	catch
0B7D: CD8C98  		call	catch
0B80: CD8C98  		call	catch
0B83: CD8C98  		call	catch
0B86: CD8C98  		call	catch
0B89: CD8C98  		call	catch
0B8C: CD8C98  		call	catch
0B8F: CD8C98  		call	catch
0B92: CD8C98  		call	catch
0B95: CD8C98  		call	catch
0B98: CD8C98  		call	catch
0B9B: CD8C98  		call	catch
0B9E: CD8C98  		call	catch
0BA1: CD8C98  		call	catch
0BA4: CD8C98  		call	catch
0BA7: CD8C98  		call	catch
0BAA: CD8C98  		call	catch
0BAD: CD8C98  		call	catch
0BB0: CD8C98  		call	catch
0BB3: CD8C98  		call	catch
0BB6: CD8C98  		call	catch
0BB9: CD8C98  		call	catch
0BBC: CD8C98  		call	catch
0BBF: CD8C98  		call	catch
0BC2: CD8C98  		call	catch
0BC5: CD8C98  		call	catch
0BC8: CD8C98  		call	catch
0BCB: CD8C98  		call	catch
0BCE: CD8C98  		call	catch
0BD1: CD8C98  		call	catch
0BD4: CD8C98  		call	catch
0BD7: CD8C98  		call	catch
0BDA: CD8C98  		call	catch
0BDD: CD8C98  		call	catch
0BE0: CD8C98  		call	catch
0BE3: CD8C98  		call	catch
0BE6: CD8C98  		call	catch
0BE9: CD8C98  		call	catch
0BEC: CD8C98  		call	catch
0BEF: CD8C98  		call	catch
0BF2: CD8C98  		call	catch
0BF5: CD8C98  		call	catch
0BF8: CD8C98  		call	catch
0BFB: CD8C98  		call	catch
0BFE: CD8C98  		call	catch
0C01: CD8C98  		call	catch
0C04: CD8C98  		call	catch
0C07: CD8C98  		call	catch
0C0A: CD8C98  		call	catch
0C0D: CD8C98  		call	catch
0C10: CD8C98  		call	catch
0C13: CD8C98  		call	catch
0C16: CD8C98  		call	catch
0C19: CD8C98  		call	catch
0C1C: CD8C98  		call	catch
0C1F: CD8C98  		call	catch
0C22: CD8C98  		call	catch
0C25: CD8C98  		call	catch
0C28: CD8C98  		call	catch
0C2B: CD8C98  		call	catch
0C2E: CD8C98  		call	catch
0C31: CD8C98  		call	catch
0C34: CD8C98  		call	catch
0C37: CD8C98  		call	catch
0C3A: CD8C98  		call	catch
0C3D: CD8C98  		call	catch
0C40: CD8C98  		call	catch
0C43: CD8C98  		call	catch
0C46: CD8C98  		call	catch
0C49: CD8C98  		call	catch
0C4C: CD8C98  		call	catch
0C4F: CD8C98  		call	catch
0C52: CD8C98  		call	catch
0C55: CD8C98  		call	catch
0C58: CD8C98  		call	catch
0C5B: CD8C98  		call	catch
0C5E: CD8C98  		call	catch
0C61: CD8C98  		call	catch
0C64: CD8C98  		call	catch
0C67: CD8C98  		call	catch
0C6A: CD8C98  		call	catch
0C6D: CD8C98  		call	catch
0C70: CD8C98  		call	catch
0C73: CD8C98  		call	catch
0C76: CD8C98  		call	catch
0C79: CD8C98  		call	catch
0C7C: CD8C98  		call	catch
0C7F: CD8C98  		call	catch
0C82: CD8C98  		call	catch
0C85: CD8C98  		call	catch
0C88: CD8C98  		call	catch
0C8B: CD8C98  		call	catch
0C8E: CD8C98  		call	catch
0C91: CD8C98  		call	catch
0C94: CD8C98  		call	catch
0C97: CD8C98  		call	catch
0C9A: CD8C98  		call	catch
0C9D: CD8C98  		call	catch
0CA0: CD8C98  		call	catch
0CA3: CD8C98  		call	catch
0CA6: CD8C98  		call	catch
0CA9: CD8C98  		call	catch
0CAC: CD8C98  		call	catch
0CAF: CD8C98  		call	catch
0CB2: CD8C98  		call	catch
0CB5: CD8C98  		call	catch
0CB8: CD8C98  		call	catch
0CBB: CD8C98  		call	catch
0CBE: CD8C98  		call	catch
0CC1: CD8C98  		call	catch
0CC4: CD8C98  		call	catch
0CC7: CD8C98  		call	catch
0CCA: CD8C98  		call	catch
0CCD: CD8C98  		call	catch
0CD0: CD8C98  		call	catch
0CD3: CD8C98  		call	catch
0CD6: CD8C98  		call	catch
0CD9: CD8C98  		call	catch
0CDC: CD8C98  		call	catch
0CDF: CD8C98  		call	catch
0CE2: CD8C98  		call	catch
0CE5: CD8C98  		call	catch
0CE8: CD8C98  		call	catch
0CEB: CD8C98  		call	catch
0CEE: CD8C98  		call	catch
0CF1: CD8C98  		call	catch
0CF4: CD8C98  		call	catch
0CF7: CD8C98  		call	catch
0CFA: CD8C98  		call	catch
0CFD: CD8C98  		call	catch
0D00: CD8C98  		call	catch
0D03: CD8C98  		call	catch
0D06: CD8C98  		call	catch
0D09: CD8C98  		call	catch
0D0C: CD8C98  		call	catch
0D0F: CD8C98  		call	catch
0D12: CD8C98  		call	catch
0D15: CD8C98  		call	catch
0D18: CD8C98  		call	catch
0D1B: CD8C98  		call	catch
0D1E: CD8C98  		call	catch
0D21: CD8C98  		call	catch
0D24: CD8C98  		call	catch
0D27: CD8C98  		call	catch
0D2A: CD8C98  		call	catch
0D2D: CD8C98  		call	catch
0D30: CD8C98  		call	catch
0D33: CD8C98  		call	catch
0D36: CD8C98  		call	catch
0D39: CD8C98  		call	catch
0D3C: CD8C98  		call	catch
0D3F: CD8C98  		call	catch
0D42: CD8C98  		call	catch
0D45: CD8C98  		call	catch
0D48: CD8C98  		call	catch
0D4B: CD8C98  		call	catch
0D4E: CD8C98  		call	catch
0D51: CD8C98  		call	catch
0D54: CD8C98  		call	catch
0D57: CD8C98  		call	catch
0D5A: CD8C98  		call	catch
0D5D: CD8C98  		call	catch
0D60: CD8C98  		call	catch
0D63: CD8C98  		call	catch
0D66: CD8C98  		call	catch
0D69: CD8C98  		call	catch
0D6C: CD8C98  		call	catch
0D6F: CD8C98  		call	catch
0D72: CD8C98  		call	catch
0D75: CD8C98  		call	catch
0D78: CD8C98  		call	catch
0D7B: CD8C98  		call	catch
0D7E: CD8C98  		call	catch
0D81: CD8C98  		call	catch
0D84: CD8C98  		call	catch
0D87: CD8C98  		call	catch
0D8A: CD8C98  		call	catch
0D8D: CD8C98  		call	catch
0D90: CD8C98  		call	catch
0D93: CD8C98  		call	catch
0D96: CD8C98  		call	catch
0D99: CD8C98  		call	catch
0D9C: CD8C98  		call	catch
0D9F: CD8C98  		call	catch
0DA2: CD8C98  		call	catch
0DA5: CD8C98  		call	catch
0DA8: CD8C98  		call	catch
0DAB: CD8C98  		call	catch
0DAE: CD8C98  		call	catch
0DB1: CD8C98  		call	catch
0DB4: CD8C98  		call	catch
0DB7: CD8C98  		call	catch
0DBA: CD8C98  		call	catch
0DBD: CD8C98  		call	catch
0DC0: CD8C98  		call	catch
0DC3: CD8C98  		call	catch
0DC6: CD8C98  		call	catch
0DC9: CD8C98  		call	catch
0DCC: CD8C98  		call	catch
0DCF: CD8C98  		call	catch
0DD2: CD8C98  		call	catch
0DD5: CD8C98  		call	catch
0DD8: CD8C98  		call	catch
0DDB: CD8C98  		call	catch
0DDE: CD8C98  		call	catch
0DE1: CD8C98  		call	catch
0DE4: CD8C98  		call	catch
0DE7: CD8C98  		call	catch
0DEA: CD8C98  		call	catch
0DED: CD8C98  		call	catch
0DF0: CD8C98  		call	catch
0DF3: CD8C98  		call	catch
0DF6: CD8C98  		call	catch
0DF9: CD8C98  		call	catch
0DFC: CD8C98  		call	catch
0DFF: CD8C98  		call	catch
0E02: CD8C98  		call	catch
0E05: CD8C98  		call	catch
0E08: CD8C98  		call	catch
0E0B: CD8C98  		call	catch
0E0E: CD8C98  		call	catch
0E11: CD8C98  		call	catch
0E14: CD8C98  		call	catch
0E17: CD8C98  		call	catch
0E1A: CD8C98  		call	catch
0E1D: CD8C98  		call	catch
0E20: CD8C98  		call	catch
0E23: CD8C98  		call	catch
0E26: CD8C98  		call	catch
0E29: CD8C98  		call	catch
0E2C: CD8C98  		call	catch
0E2F: CD8C98  		call	catch
0E32: CD8C98  		call	catch
0E35: CD8C98  		call	catch
0E38: CD8C98  		call	catch
0E3B: CD8C98  		call	catch
0E3E: CD8C98  		call	catch
0E41: CD8C98  		call	catch
0E44: CD8C98  		call	catch
0E47: CD8C98  		call	catch
0E4A: CD8C98  		call	catch
0E4D: CD8C98  		call	catch
0E50: CD8C98  		call	catch
0E53: CD8C98  		call	catch
0E56: CD8C98  		call	catch
0E59: CD8C98  		call	catch
0E5C: CD8C98  		call	catch
0E5F: CD8C98  		call	catch
0E62: CD8C98  		call	catch
0E65: CD8C98  		call	catch
0E68: CD8C98  		call	catch
0E6B: CD8C98  		call	catch
0E6E: CD8C98  		call	catch
0E71: CD8C98  		call	catch
0E74: CD8C98  		call	catch
0E77: CD8C98  		call	catch
0E7A: CD8C98  		call	catch
0E7D: CD8C98  		call	catch
0E80: CD8C98  		call	catch
0E83: CD8C98  		call	catch
0E86: CD8C98  		call	catch
0E89: CD8C98  		call	catch
0E8C: CD8C98  		call	catch
0E8F: CD8C98  		call	catch
0E92: CD8C98  		call	catch
0E95: CD8C98  		call	catch
0E98: CD8C98  		call	catch
0E9B: CD8C98  		call	catch
0E9E: CD8C98  		call	catch
0EA1: CD8C98  		call	catch
0EA4: CD8C98  		call	catch
0EA7: CD8C98  		call	catch
0EAA: CD8C98  		call	catch
0EAD: CD8C98  		call	catch
0EB0: CD8C98  		call	catch
0EB3: CD8C98  		call	catch
0EB6: CD8C98  		call	catch
0EB9: CD8C98  		call	catch
0EBC: CD8C98  		call	catch
0EBF: CD8C98  		call	catch
0EC2: CD8C98  		call	catch
0EC5: CD8C98  		call	catch
0EC8: CD8C98  		call	catch
0ECB: CD8C98  		call	catch
0ECE: CD8C98  		call	catch
0ED1: CD8C98  		call	catch
0ED4: CD8C98  		call	catch
0ED7: CD8C98  		call	catch
0EDA: CD8C98  		call	catch
0EDD: CD8C98  		call	catch
0EE0: CD8C98  		call	catch
0EE3: CD8C98  		call	catch
0EE6: CD8C98  		call	catch
0EE9: CD8C98  		call	catch
0EEC: CD8C98  		call	catch
0EEF: CD8C98  		call	catch
0EF2: CD8C98  		call	catch
0EF5: CD8C98  		call	catch
0EF8: CD8C98  		call	catch
0EFB: CD8C98  		call	catch
0EFE: CD8C98  		call	catch
0F01: CD8C98  		call	catch
0F04: CD8C98  		call	catch
0F07: CD8C98  		call	catch
0F0A: CD8C98  		call	catch
0F0D: CD8C98  		call	catch
0F10: CD8C98  		call	catch
0F13: CD8C98  		call	catch
0F16: CD8C98  		call	catch
0F19: CD8C98  		call	catch
0F1C: CD8C98  		call	catch
0F1F: CD8C98  		call	catch
0F22: CD8C98  		call	catch
0F25: CD8C98  		call	catch
0F28: CD8C98  		call	catch
0F2B: CD8C98  		call	catch
0F2E: CD8C98  		call	catch
0F31: CD8C98  		call	catch
0F34: CD8C98  		call	catch
0F37: CD8C98  		call	catch
0F3A: CD8C98  		call	catch
0F3D: CD8C98  		call	catch
0F40: CD8C98  		call	catch
0F43: CD8C98  		call	catch
0F46: CD8C98  		call	catch
0F49: CD8C98  		call	catch
0F4C: CD8C98  		call	catch
0F4F: CD8C98  		call	catch
0F52: CD8C98  		call	catch
0F55: CD8C98  		call	catch
0F58: CD8C98  		call	catch
0F5B: CD8C98  		call	catch
0F5E: CD8C98  		call	catch
0F61: CD8C98  		call	catch
0F64: CD8C98  		call	catch
0F67: CD8C98  		call	catch
0F6A: CD8C98  		call	catch
0F6D: CD8C98  		call	catch
0F70: CD8C98  		call	catch
0F73: CD8C98  		call	catch
0F76: CD8C98  		call	catch
0F79: CD8C98  		call	catch
0F7C: CD8C98  		call	catch
0F7F: CD8C98  		call	catch
0F82: CD8C98  		call	catch
0F85: CD8C98  		call	catch
0F88: CD8C98  		call	catch
0F8B: CD8C98  		call	catch
0F8E: CD8C98  		call	catch
0F91: CD8C98  		call	catch
0F94: CD8C98  		call	catch
0F97: CD8C98  		call	catch
0F9A: CD8C98  		call	catch
0F9D: CD8C98  		call	catch
0FA0: CD8C98  		call	catch
0FA3: CD8C98  		call	catch
0FA6: CD8C98  		call	catch
0FA9: CD8C98  		call	catch
0FAC: CD8C98  		call	catch
0FAF: CD8C98  		call	catch
0FB2: CD8C98  		call	catch
0FB5: CD8C98  		call	catch
0FB8: CD8C98  		call	catch
0FBB: CD8C98  		call	catch
0FBE: CD8C98  		call	catch
0FC1: CD8C98  		call	catch
0FC4: CD8C98  		call	catch
0FC7: CD8C98  		call	catch
0FCA: CD8C98  		call	catch
0FCD: CD8C98  		call	catch
0FD0: CD8C98  		call	catch
0FD3: CD8C98  		call	catch
0FD6: CD8C98  		call	catch
0FD9: CD8C98  		call	catch
0FDC: CD8C98  		call	catch
0FDF: CD8C98  		call	catch
0FE2: CD8C98  		call	catch
0FE5: CD8C98  		call	catch
0FE8: CD8C98  		call	catch
0FEB: CD8C98  		call	catch
0FEE: CD8C98  		call	catch
0FF1: CD8C98  		call	catch
0FF4: CD8C98  		call	catch
0FF7: CD8C98  		call	catch
0FFA: CD8C98  		call	catch
0FFD: CD8C98  		call	catch
1000: CD8C98  		call	catch
1003: CD8C98  		call	catch
1006: CD8C98  		call	catch
1009: CD8C98  		call	catch
100C: CD8C98  		call	catch
100F: CD8C98  		call	catch
1012: CD8C98  		call	catch
1015: CD8C98  		call	catch
1018: CD8C98  		call	catch
101B: CD8C98  		call	catch
101E: CD8C98  		call	catch
1021: CD8C98  		call	catch
1024: CD8C98  		call	catch
1027: CD8C98  		call	catch
102A: CD8C98  		call	catch
102D: CD8C98  		call	catch
1030: CD8C98  		call	catch
1033: CD8C98  		call	catch
1036: CD8C98  		call	catch
1039: CD8C98  		call	catch
103C: CD8C98  		call	catch
103F: CD8C98  		call	catch
1042: CD8C98  		call	catch
1045: CD8C98  		call	catch
1048: CD8C98  		call	catch
104B: CD8C98  		call	catch
104E: CD8C98  		call	catch
1051: CD8C98  		call	catch
1054: CD8C98  		call	catch
1057: CD8C98  		call	catch
105A: CD8C98  		call	catch
105D: CD8C98  		call	catch
1060: CD8C98  		call	catch
1063: CD8C98  		call	catch
1066: CD8C98  		call	catch
1069: CD8C98  		call	catch
106C: CD8C98  		call	catch
106F: CD8C98  		call	catch
1072: CD8C98  		call	catch
1075: CD8C98  		call	catch
1078: CD8C98  		call	catch
107B: CD8C98  		call	catch
107E: CD8C98  		call	catch
1081: CD8C98  		call	catch
1084: CD8C98  		call	catch
1087: CD8C98  		call	catch
108A: CD8C98  		call	catch
108D: CD8C98  		call	catch
1090: CD8C98  		call	catch
1093: CD8C98  		call	catch
1096: CD8C98  		call	catch
1099: CD8C98  		call	catch
109C: CD8C98  		call	catch
109F: CD8C98  		call	catch
10A2: CD8C98  		call	catch
10A5: CD8C98  		call	catch
10A8: CD8C98  		call	catch
10AB: CD8C98  		call	catch
10AE: CD8C98  		call	catch
10B1: CD8C98  		call	catch
10B4: CD8C98  		call	catch
10B7: CD8C98  		call	catch
10BA: CD8C98  		call	catch
10BD: CD8C98  		call	catch
10C0: CD8C98  		call	catch
10C3: CD8C98  		call	catch
10C6: CD8C98  		call	catch
10C9: CD8C98  		call	catch
10CC: CD8C98  		call	catch
10CF: CD8C98  		call	catch
10D2: CD8C98  		call	catch
10D5: CD8C98  		call	catch
10D8: CD8C98  		call	catch
10DB: CD8C98  		call	catch
10DE: CD8C98  		call	catch
10E1: CD8C98  		call	catch
10E4: CD8C98  		call	catch
10E7: CD8C98  		call	catch
10EA: CD8C98  		call	catch
10ED: CD8C98  		call	catch
10F0: CD8C98  		call	catch
10F3: CD8C98  		call	catch
10F6: CD8C98  		call	catch
10F9: CD8C98  		call	catch
10FC: CD8C98  		call	catch
10FF: CD8C98  		call	catch
1102: CD8C98  		call	catch
1105: CD8C98  		call	catch
1108: CD8C98  		call	catch
110B: CD8C98  		call	catch
110E: CD8C98  		call	catch
1111: CD8C98  		call	catch
1114: CD8C98  		call	catch
1117: CD8C98  		call	catch
111A: CD8C98  		call	catch
111D: CD8C98  		call	catch
1120: CD8C98  		call	catch
1123: CD8C98  		call	catch
1126: CD8C98  		call	catch
1129: CD8C98  		call	catch
112C: CD8C98  		call	catch
112F: CD8C98  		call	catch
1132: CD8C98  		call	catch
1135: CD8C98  		call	catch
1138: CD8C98  		call	catch
113B: CD8C98  		call	catch
113E: CD8C98  		call	catch
1141: CD8C98  		call	catch
1144: CD8C98  		call	catch
1147: CD8C98  		call	catch
114A: CD8C98  		call	catch
114D: CD8C98  		call	catch
1150: CD8C98  		call	catch
1153: CD8C98  		call	catch
1156: CD8C98  		call	catch
1159: CD8C98  		call	catch
115C: CD8C98  		call	catch
115F: CD8C98  		call	catch
1162: CD8C98  		call	catch
1165: CD8C98  		call	catch
1168: CD8C98  		call	catch
116B: CD8C98  		call	catch
116E: CD8C98  		call	catch
1171: CD8C98  		call	catch
1174: CD8C98  		call	catch
1177: CD8C98  		call	catch
117A: CD8C98  		call	catch
117D: CD8C98  		call	catch
1180: CD8C98  		call	catch
1183: CD8C98  		call	catch
1186: CD8C98  		call	catch
1189: CD8C98  		call	catch
118C: CD8C98  		call	catch
118F: CD8C98  		call	catch
1192: CD8C98  		call	catch
1195: CD8C98  		call	catch
1198: CD8C98  		call	catch
119B: CD8C98  		call	catch
119E: CD8C98  		call	catch
11A1: CD8C98  		call	catch
11A4: CD8C98  		call	catch
11A7: CD8C98  		call	catch
11AA: CD8C98  		call	catch
11AD: CD8C98  		call	catch
11B0: CD8C98  		call	catch
11B3: CD8C98  		call	catch
11B6: CD8C98  		call	catch
11B9: CD8C98  		call	catch
11BC: CD8C98  		call	catch
11BF: CD8C98  		call	catch
11C2: CD8C98  		call	catch
11C5: CD8C98  		call	catch
11C8: CD8C98  		call	catch
11CB: CD8C98  		call	catch
11CE: CD8C98  		call	catch
11D1: CD8C98  		call	catch
11D4: CD8C98  		call	catch
11D7: CD8C98  		call	catch
11DA: CD8C98  		call	catch
11DD: CD8C98  		call	catch
11E0: CD8C98  		call	catch
11E3: CD8C98  		call	catch
11E6: CD8C98  		call	catch
11E9: CD8C98  		call	catch
11EC: CD8C98  		call	catch
11EF: CD8C98  		call	catch
11F2: CD8C98  		call	catch
11F5: CD8C98  		call	catch
11F8: CD8C98  		call	catch
11FB: CD8C98  		call	catch
11FE: CD8C98  		call	catch
1201: CD8C98  		call	catch
1204: CD8C98  		call	catch
1207: CD8C98  		call	catch
120A: CD8C98  		call	catch
120D: CD8C98  		call	catch
1210: CD8C98  		call	catch
1213: CD8C98  		call	catch
1216: CD8C98  		call	catch
1219: CD8C98  		call	catch
121C: CD8C98  		call	catch
121F: CD8C98  		call	catch
1222: CD8C98  		call	catch
1225: CD8C98  		call	catch
1228: CD8C98  		call	catch
122B: CD8C98  		call	catch
122E: CD8C98  		call	catch
1231: CD8C98  		call	catch
1234: CD8C98  		call	catch
1237: CD8C98  		call	catch
123A: CD8C98  		call	catch
123D: CD8C98  		call	catch
1240: CD8C98  		call	catch
1243: CD8C98  		call	catch
1246: CD8C98  		call	catch
1249: CD8C98  		call	catch
124C: CD8C98  		call	catch
124F: CD8C98  		call	catch
1252: CD8C98  		call	catch
1255: CD8C98  		call	catch
1258: CD8C98  		call	catch
125B: CD8C98  		call	catch
125E: CD8C98  		call	catch
1261: CD8C98  		call	catch
1264: CD8C98  		call	catch
1267: CD8C98  		call	catch
126A: CD8C98  		call	catch
126D: CD8C98  		call	catch
1270: CD8C98  		call	catch
1273: CD8C98  		call	catch
1276: CD8C98  		call	catch
1279: CD8C98  		call	catch
127C: CD8C98  		call	catch
127F: CD8C98  		call	catch
1282: CD8C98  		call	catch
1285: CD8C98  		call	catch
1288: CD8C98  		call	catch
128B: CD8C98  		call	catch
128E: CD8C98  		call	catch
1291: CD8C98  		call	catch
1294: CD8C98  		call	catch
1297: CD8C98  		call	catch
129A: CD8C98  		call	catch
129D: CD8C98  		call	catch
12A0: CD8C98  		call	catch
12A3: CD8C98  		call	catch
12A6: CD8C98  		call	catch
12A9: CD8C98  		call	catch
12AC: CD8C98  		call	catch
12AF: CD8C98  		call	catch
12B2: CD8C98  		call	catch
12B5: CD8C98  		call	catch
12B8: CD8C98  		call	catch
12BB: CD8C98  		call	catch
12BE: CD8C98  		call	catch
12C1: CD8C98  		call	catch
12C4: CD8C98  		call	catch
12C7: CD8C98  		call	catch
12CA: CD8C98  		call	catch
12CD: CD8C98  		call	catch
12D0: CD8C98  		call	catch
12D3: CD8C98  		call	catch
12D6: CD8C98  		call	catch
12D9: CD8C98  		call	catch
12DC: CD8C98  		call	catch
12DF: CD8C98  		call	catch
12E2: CD8C98  		call	catch
12E5: CD8C98  		call	catch
12E8: CD8C98  		call	catch
12EB: CD8C98  		call	catch
12EE: CD8C98  		call	catch
12F1: CD8C98  		call	catch
12F4: CD8C98  		call	catch
12F7: CD8C98  		call	catch
12FA: CD8C98  		call	catch
12FD: CD8C98  		call	catch
1300: CD8C98  		call	catch
1303: CD8C98  		call	catch
1306: CD8C98  		call	catch
1309: CD8C98  		call	catch
130C: CD8C98  		call	catch
130F: CD8C98  		call	catch
1312: CD8C98  		call	catch
1315: CD8C98  		call	catch
1318: CD8C98  		call	catch
131B: CD8C98  		call	catch
131E: CD8C98  		call	catch
1321: CD8C98  		call	catch
1324: CD8C98  		call	catch
1327: CD8C98  		call	catch
132A: CD8C98  		call	catch
132D: CD8C98  		call	catch
1330: CD8C98  		call	catch
1333: CD8C98  		call	catch
1336: CD8C98  		call	catch
1339: CD8C98  		call	catch
133C: CD8C98  		call	catch
133F: CD8C98  		call	catch
1342: CD8C98  		call	catch
1345: CD8C98  		call	catch
1348: CD8C98  		call	catch
134B: CD8C98  		call	catch
134E: CD8C98  		call	catch
1351: CD8C98  		call	catch
1354: CD8C98  		call	catch
1357: CD8C98  		call	catch
135A: CD8C98  		call	catch
135D: CD8C98  		call	catch
1360: CD8C98  		call	catch
1363: CD8C98  		call	catch
1366: CD8C98  		call	catch
1369: CD8C98  		call	catch
136C: CD8C98  		call	catch
136F: CD8C98  		call	catch
1372: CD8C98  		call	catch
1375: CD8C98  		call	catch
1378: CD8C98  		call	catch
137B: CD8C98  		call	catch
137E: CD8C98  		call	catch
1381: CD8C98  		call	catch
1384: CD8C98  		call	catch
1387: CD8C98  		call	catch
138A: CD8C98  		call	catch
138D: CD8C98  		call	catch
1390: CD8C98  		call	catch
1393: CD8C98  		call	catch
1396: CD8C98  		call	catch
1399: CD8C98  		call	catch
139C: CD8C98  		call	catch
139F: CD8C98  		call	catch
13A2: CD8C98  		call	catch
13A5: CD8C98  		call	catch
13A8: CD8C98  		call	catch
13AB: CD8C98  		call	catch
13AE: CD8C98  		call	catch
13B1: CD8C98  		call	catch
13B4: CD8C98  		call	catch
13B7: CD8C98  		call	catch
13BA: CD8C98  		call	catch
13BD: CD8C98  		call	catch
13C0: CD8C98  		call	catch
13C3: CD8C98  		call	catch
13C6: CD8C98  		call	catch
13C9: CD8C98  		call	catch
13CC: CD8C98  		call	catch
13CF: CD8C98  		call	catch
13D2: CD8C98  		call	catch
13D5: CD8C98  		call	catch
13D8: CD8C98  		call	catch
13DB: CD8C98  		call	catch
13DE: CD8C98  			call	catch
13E1: CD8C98  		call	catch
13E4: CD8C98  		call	catch
13E7: CD8C98  		call	catch
13EA: CD8C98  		call	catch
13ED: CD8C98  		call	catch
13F0: CD8C98  		call	catch
13F3: CD8C98  		call	catch
13F6: CD8C98  		call	catch
13F9: CD8C98  		call	catch
13FC: CD8C98  		call	catch
13FF: CD8C98  		call	catch
1402: CD8C98  		call	catch
1405: CD8C98  		call	catch
1408: CD8C98  		call	catch
140B: CD8C98  		call	catch
140E: CD8C98  		call	catch
1411: CD8C98  		call	catch
1414: CD8C98  		call	catch
1417: CD8C98  		call	catch
141A: CD8C98  		call	catch
141D: CD8C98  		call	catch
1420: CD8C98  		call	catch
1423: CD8C98  		call	catch
1426: CD8C98  		call	catch
1429: CD8C98  		call	catch
142C: CD8C98  		call	catch
142F: CD8C98  		call	catch
1432: CD8C98  		call	catch
1435: CD8C98  		call	catch
1438: CD8C98  		call	catch
143B: CD8C98  		call	catch
143E: CD8C98  		call	catch
1441: CD8C98  		call	catch
1444: CD8C98  		call	catch
1447: CD8C98  		call	catch
144A: CD8C98  		call	catch
144D: CD8C98  		call	catch
1450: CD8C98  		call	catch
1453: CD8C98  		call	catch
1456: CD8C98  		call	catch
1459: CD8C98  		call	catch
145C: CD8C98  		call	catch
145F: CD8C98  		call	catch
1462: CD8C98  		call	catch
1465: CD8C98  		call	catch
1468: CD8C98  		call	catch
146B: CD8C98  		call	catch
146E: CD8C98  		call	catch
1471: CD8C98  		call	catch
1474: CD8C98  		call	catch
1477: CD8C98  		call	catch
147A: CD8C98  		call	catch
147D: CD8C98  		call	catch
1480: CD8C98  		call	catch
1483: CD8C98  		call	catch
1486: CD8C98  		call	catch
1489: CD8C98  		call	catch
148C: CD8C98  		call	catch
148F: CD8C98  		call	catch
1492: CD8C98  		call	catch
1495: CD8C98  		call	catch
1498: CD8C98  		call	catch
149B: CD8C98  		call	catch
149E: CD8C98  		call	catch
14A1: CD8C98  		call	catch
14A4: CD8C98  		call	catch
14A7: CD8C98  		call	catch
14AA: CD8C98  		call	catch
14AD: CD8C98  		call	catch
14B0: CD8C98  		call	catch
14B3: CD8C98  		call	catch
14B6: CD8C98  		call	catch
14B9: CD8C98  		call	catch
14BC: CD8C98  		call	catch
14BF: CD8C98  		call	catch
14C2: CD8C98  		call	catch
14C5: CD8C98  		call	catch
14C8: CD8C98  		call	catch
14CB: CD8C98  		call	catch
14CE: CD8C98  		call	catch
14D1: CD8C98  		call	catch
14D4: CD8C98  		call	catch
14D7: CD8C98  		call	catch
14DA: CD8C98  		call	catch
14DD: CD8C98  		call	catch
14E0: CD8C98  		call	catch
14E3: CD8C98  		call	catch
14E6: CD8C98  		call	catch
14E9: CD8C98  		call	catch
14EC: CD8C98  		call	catch
14EF: CD8C98  		call	catch
14F2: CD8C98  		call	catch
14F5: CD8C98  		call	catch
14F8: CD8C98  		call	catch
14FB: CD8C98  		call	catch
14FE: CD8C98  		call	catch
1501: CD8C98  		call	catch
1504: CD8C98  		call	catch
1507: CD8C98  		call	catch
150A: CD8C98  		call	catch
150D: CD8C98  		call	catch
1510: CD8C98  		call	catch
1513: CD8C98  		call	catch
1516: CD8C98  		call	catch
1519: CD8C98  		call	catch
151C: CD8C98  		call	catch
151F: CD8C98  		call	catch
1522: CD8C98  		call	catch
1525: CD8C98  		call	catch
1528: CD8C98  		call	catch
152B: CD8C98  		call	catch
152E: CD8C98  		call	catch
1531: CD8C98  		call	catch
1534: CD8C98  		call	catch
1537: CD8C98  		call	catch
153A: CD8C98  		call	catch
153D: CD8C98  		call	catch
1540: CD8C98  		call	catch
1543: CD8C98  		call	catch
1546: CD8C98  		call	catch
1549: CD8C98  		call	catch
154C: CD8C98  		call	catch
154F: CD8C98  		call	catch
1552: CD8C98  		call	catch
1555: CD8C98  		call	catch
1558: CD8C98  		call	catch
155B: CD8C98  		call	catch
155E: CD8C98  		call	catch
1561: CD8C98  		call	catch
1564: CD8C98  		call	catch
1567: CD8C98  		call	catch
156A: CD8C98  		call	catch
156D: CD8C98  		call	catch
1570: CD8C98  		call	catch
1573: CD8C98  		call	catch
1576: CD8C98  		call	catch
1579: CD8C98  		call	catch
157C: CD8C98  		call	catch
157F: CD8C98  		call	catch
1582: CD8C98  		call	catch
1585: CD8C98  		call	catch
1588: CD8C98  		call	catch
158B: CD8C98  		call	catch
158E: CD8C98  		call	catch
1591: CD8C98  		call	catch
1594: CD8C98  		call	catch
1597: CD8C98  		call	catch
159A: CD8C98  		call	catch
159D: CD8C98  		call	catch
15A0: CD8C98  		call	catch
15A3: CD8C98  		call	catch
15A6: CD8C98  		call	catch
15A9: CD8C98  		call	catch
15AC: CD8C98  		call	catch
15AF: CD8C98  		call	catch
15B2: CD8C98  		call	catch
15B5: CD8C98  		call	catch
15B8: CD8C98  		call	catch
15BB: CD8C98  		call	catch
15BE: CD8C98  		call	catch
15C1: CD8C98  		call	catch
15C4: CD8C98  		call	catch
15C7: CD8C98  		call	catch
15CA: CD8C98  		call	catch
15CD: CD8C98  		call	catch
15D0: CD8C98  		call	catch
15D3: CD8C98  		call	catch
15D6: CD8C98  		call	catch
15D9: CD8C98  		call	catch
15DC: CD8C98  		call	catch
15DF: CD8C98  		call	catch
15E2: CD8C98  		call	catch
15E5: CD8C98  		call	catch
15E8: CD8C98  		call	catch
15EB: CD8C98  		call	catch
15EE: CD8C98  		call	catch
15F1: CD8C98  		call	catch
15F4: CD8C98  		call	catch
15F7: CD8C98  		call	catch
15FA: CD8C98  		call	catch
15FD: CD8C98  		call	catch
1600: CD8C98  		call	catch
1603: CD8C98  		call	catch
1606: CD8C98  		call	catch
1609: CD8C98  		call	catch
160C: CD8C98  		call	catch
160F: CD8C98  		call	catch
1612: CD8C98  		call	catch
1615: CD8C98  		call	catch
1618: CD8C98  		call	catch
161B: CD8C98  		call	catch
161E: CD8C98  		call	catch
1621: CD8C98  		call	catch
1624: CD8C98  		call	catch
1627: CD8C98  		call	catch
162A: CD8C98  		call	catch
162D: CD8C98  		call	catch
1630: CD8C98  		call	catch
1633: CD8C98  		call	catch
1636: CD8C98  		call	catch
1639: CD8C98  		call	catch
163C: CD8C98  		call	catch
163F: CD8C98  		call	catch
1642: CD8C98  		call	catch
1645: CD8C98  		call	catch
1648: CD8C98  		call	catch
164B: CD8C98  		call	catch
164E: CD8C98  		call	catch
1651: CD8C98  		call	catch
1654: CD8C98  		call	catch
1657: CD8C98  		call	catch
165A: CD8C98  		call	catch
165D: CD8C98  		call	catch
1660: CD8C98  		call	catch
1663: CD8C98  		call	catch
1666: CD8C98  		call	catch
1669: CD8C98  		call	catch
166C: CD8C98  		call	catch
166F: CD8C98  		call	catch
1672: CD8C98  		call	catch
1675: CD8C98  		call	catch
1678: CD8C98  		call	catch
167B: CD8C98  		call	catch
167E: CD8C98  		call	catch
1681: CD8C98  		call	catch
1684: CD8C98  		call	catch
1687: CD8C98  		call	catch
168A: CD8C98  		call	catch
168D: CD8C98  		call	catch
1690: CD8C98  		call	catch
1693: CD8C98  		call	catch
1696: CD8C98  		call	catch
1699: CD8C98  		call	catch
169C: CD8C98  		call	catch
169F: CD8C98  		call	catch
16A2: CD8C98  		call	catch
16A5: CD8C98  		call	catch
16A8: CD8C98  		call	catch
16AB: CD8C98  		call	catch
16AE: CD8C98  		call	catch
16B1: CD8C98  		call	catch
16B4: CD8C98  		call	catch
16B7: CD8C98  		call	catch
16BA: CD8C98  		call	catch
16BD: CD8C98  		call	catch
16C0: CD8C98  		call	catch
16C3: CD8C98  		call	catch
16C6: CD8C98  		call	catch
16C9: CD8C98  		call	catch
16CC: CD8C98  		call	catch
16CF: CD8C98  		call	catch
16D2: CD8C98  		call	catch
16D5: CD8C98  		call	catch
16D8: CD8C98  		call	catch
16DB: CD8C98  		call	catch
16DE: CD8C98  		call	catch
16E1: CD8C98  		call	catch
16E4: CD8C98  		call	catch
16E7: CD8C98  		call	catch
16EA: CD8C98  		call	catch
16ED: CD8C98  		call	catch
16F0: CD8C98  		call	catch
16F3: CD8C98  		call	catch
16F6: CD8C98  		call	catch
16F9: CD8C98  		call	catch
16FC: CD8C98  		call	catch
16FF: CD8C98  		call	catch
1702: CD8C98  		call	catch
1705: CD8C98  		call	catch
1708: CD8C98  		call	catch
170B: CD8C98  		call	catch
170E: CD8C98  		call	catch
1711: CD8C98  		call	catch
1714: CD8C98  		call	catch
1717: CD8C98  		call	catch
171A: CD8C98  		call	catch
171D: CD8C98  		call	catch
1720: CD8C98  		call	catch
1723: CD8C98  		call	catch
1726: CD8C98  		call	catch
1729: CD8C98  		call	catch
172C: CD8C98  		call	catch
172F: CD8C98  		call	catch
1732: CD8C98  		call	catch
1735: CD8C98  		call	catch
1738: CD8C98  		call	catch
173B: CD8C98  		call	catch
173E: CD8C98  		call	catch
1741: CD8C98  		call	catch
1744: CD8C98  		call	catch
1747: CD8C98  		call	catch
174A: CD8C98  		call	catch
174D: CD8C98  		call	catch
1750: CD8C98  		call	catch
1753: CD8C98  		call	catch
1756: CD8C98  		call	catch
1759: CD8C98  		call	catch
175C: CD8C98  		call	catch
175F: CD8C98  		call	catch
1762: CD8C98  		call	catch
1765: CD8C98  		call	catch
1768: CD8C98  		call	catch
176B: CD8C98  		call	catch
176E: CD8C98  		call	catch
1771: CD8C98  		call	catch
1774: CD8C98  		call	catch
1777: CD8C98  		call	catch
177A: CD8C98  		call	catch
177D: CD8C98  		call	catch
1780: CD8C98  		call	catch
1783: CD8C98  		call	catch
1786: CD8C98  		call	catch
1789: CD8C98  		call	catch
178C: CD8C98  		call	catch
178F: CD8C98  		call	catch
1792: CD8C98  		call	catch
1795: CD8C98  		call	catch
1798: CD8C98  		call	catch
179B: CD8C98  		call	catch
179E: CD8C98  		call	catch
17A1: CD8C98  		call	catch
17A4: CD8C98  		call	catch
17A7: CD8C98  		call	catch
17AA: CD8C98  		call	catch
17AD: CD8C98  		call	catch
17B0: CD8C98  		call	catch
17B3: CD8C98  		call	catch
17B6: CD8C98  		call	catch
17B9: CD8C98  		call	catch
17BC: CD8C98  		call	catch
17BF: CD8C98  		call	catch
17C2: CD8C98  		call	catch
17C5: CD8C98  		call	catch
17C8: CD8C98  		call	catch
17CB: CD8C98  		call	catch
17CE: CD8C98  		call	catch
17D1: CD8C98  		call	catch
17D4: CD8C98  		call	catch
17D7: CD8C98  		call	catch
17DA: CD8C98  		call	catch
17DD: CD8C98  		call	catch
17E0: CD8C98  		call	catch
17E3: CD8C98  		call	catch
17E6: CD8C98  		call	catch
17E9: CD8C98  		call	catch
17EC: CD8C98  		call	catch
17EF: CD8C98  		call	catch
17F2: CD8C98  		call	catch
17F5: CD8C98  		call	catch
17F8: CD8C98  		call	catch
17FB: CD8C98  		call	catch
17FE: CD8C98  		call	catch
1801: CD8C98  		call	catch
1804: CD8C98  		call	catch
1807: CD8C98  		call	catch
180A: CD8C98  		call	catch
180D: CD8C98  		call	catch
1810: CD8C98  		call	catch
1813: CD8C98  		call	catch
1816: CD8C98  		call	catch
1819: CD8C98  		call	catch
181C: CD8C98  		call	catch
181F: CD8C98  		call	catch
1822: CD8C98  		call	catch
1825: CD8C98  		call	catch
1828: CD8C98  		call	catch
182B: CD8C98  		call	catch
182E: CD8C98  		call	catch
1831: CD8C98  		call	catch
1834: CD8C98  		call	catch
1837: CD8C98  		call	catch
183A: CD8C98  		call	catch
183D: CD8C98  		call	catch
1840: CD8C98  		call	catch
1843: CD8C98  		call	catch
1846: CD8C98  		call	catch
1849: CD8C98  		call	catch
184C: CD8C98  		call	catch
184F: CD8C98  		call	catch
1852: CD8C98  		call	catch
1855: CD8C98  		call	catch
1858: CD8C98  		call	catch
185B: CD8C98  		call	catch
185E: CD8C98  		call	catch
1861: CD8C98  		call	catch
1864: CD8C98  		call	catch
1867: CD8C98  		call	catch
186A: CD8C98  		call	catch
186D: CD8C98  		call	catch
1870: CD8C98  		call	catch
1873: CD8C98  		call	catch
1876: CD8C98  		call	catch
1879: CD8C98  		call	catch
187C: CD8C98  		call	catch
187F: CD8C98  		call	catch
1882: CD8C98  		call	catch
1885: CD8C98  		call	catch
1888: CD8C98  		call	catch
188B: CD8C98  		call	catch
188E: CD8C98  		call	catch
1891: CD8C98  		call	catch
1894: CD8C98  		call	catch
1897: CD8C98  		call	catch
189A: CD8C98  		call	catch
189D: CD8C98  		call	catch
18A0: CD8C98  		call	catch
18A3: CD8C98  		call	catch
18A6: CD8C98  		call	catch
18A9: CD8C98  		call	catch
18AC: CD8C98  		call	catch
18AF: CD8C98  		call	catch
18B2: CD8C98  		call	catch
18B5: CD8C98  		call	catch
18B8: CD8C98  		call	catch
18BB: CD8C98  		call	catch
18BE: CD8C98  		call	catch
18C1: CD8C98  		call	catch
18C4: CD8C98  		call	catch
18C7: CD8C98  		call	catch
18CA: CD8C98  		call	catch
18CD: CD8C98  		call	catch
18D0: CD8C98  		call	catch
18D3: CD8C98  		call	catch
18D6: CD8C98  		call	catch
18D9: CD8C98  		call	catch
18DC: CD8C98  		call	catch
18DF: CD8C98  		call	catch
18E2: CD8C98  		call	catch
18E5: CD8C98  		call	catch
18E8: CD8C98  		call	catch
18EB: CD8C98  		call	catch
18EE: CD8C98  		call	catch
18F1: CD8C98  		call	catch
18F4: CD8C98  		call	catch
18F7: CD8C98  		call	catch
18FA: CD8C98  		call	catch
18FD: CD8C98  		call	catch
1900: CD8C98  		call	catch
1903: CD8C98  		call	catch
1906: CD8C98  		call	catch
1909: CD8C98  		call	catch
190C: CD8C98  		call	catch
190F: CD8C98  		call	catch
1912: CD8C98  		call	catch
1915: CD8C98  		call	catch
1918: CD8C98  		call	catch
191B: CD8C98  		call	catch
191E: CD8C98  		call	catch
1921: CD8C98  		call	catch
1924: CD8C98  		call	catch
1927: CD8C98  		call	catch
192A: CD8C98  		call	catch
192D: CD8C98  		call	catch
1930: CD8C98  		call	catch
1933: CD8C98  		call	catch
1936: CD8C98  		call	catch
1939: CD8C98  		call	catch
193C: CD8C98  		call	catch
193F: CD8C98  		call	catch
1942: CD8C98  		call	catch
1945: CD8C98  		call	catch
1948: CD8C98  		call	catch
194B: CD8C98  		call	catch
194E: CD8C98  		call	catch
1951: CD8C98  		call	catch
1954: CD8C98  		call	catch
1957: CD8C98  		call	catch
195A: CD8C98  		call	catch
195D: CD8C98  		call	catch
1960: CD8C98  		call	catch
1963: CD8C98  		call	catch
1966: CD8C98  		call	catch
1969: CD8C98  		call	catch
196C: CD8C98  		call	catch
196F: CD8C98  		call	catch
1972: CD8C98  		call	catch
1975: CD8C98  		call	catch
1978: CD8C98  		call	catch
197B: CD8C98  		call	catch
197E: CD8C98  		call	catch
1981: CD8C98  		call	catch
1984: CD8C98  		call	catch
1987: CD8C98  		call	catch
198A: CD8C98  		call	catch
198D: CD8C98  		call	catch
1990: CD8C98  		call	catch
1993: CD8C98  		call	catch
1996: CD8C98  		call	catch
1999: CD8C98  		call	catch
199C: CD8C98  		call	catch
199F: CD8C98  		call	catch
19A2: CD8C98  		call	catch
19A5: CD8C98  		call	catch
19A8: CD8C98  		call	catch
19AB: CD8C98  		call	catch
19AE: CD8C98  		call	catch
19B1: CD8C98  		call	catch
19B4: CD8C98  		call	catch
19B7: CD8C98  		call	catch
19BA: CD8C98  		call	catch
19BD: CD8C98  		call	catch
19C0: CD8C98  		call	catch
19C3: CD8C98  		call	catch
19C6: CD8C98  		call	catch
19C9: CD8C98  		call	catch
19CC: CD8C98  		call	catch
19CF: CD8C98  		call	catch
19D2: CD8C98  		call	catch
19D5: CD8C98  		call	catch
19D8: CD8C98  		call	catch
19DB: CD8C98  		call	catch
19DE: CD8C98  		call	catch
19E1: CD8C98  		call	catch
19E4: CD8C98  		call	catch
19E7: CD8C98  		call	catch
19EA: CD8C98  		call	catch
19ED: CD8C98  		call	catch
19F0: CD8C98  		call	catch
19F3: CD8C98  		call	catch
19F6: CD8C98  		call	catch
19F9: CD8C98  		call	catch
19FC: CD8C98  		call	catch
19FF: CD8C98  		call	catch
1A02: CD8C98  		call	catch
1A05: CD8C98  		call	catch
1A08: CD8C98  		call	catch
1A0B: CD8C98  		call	catch
1A0E: CD8C98  		call	catch
1A11: CD8C98  		call	catch
1A14: CD8C98  		call	catch
1A17: CD8C98  		call	catch
1A1A: CD8C98  		call	catch
1A1D: CD8C98  		call	catch
1A20: CD8C98  		call	catch
1A23: CD8C98  		call	catch
1A26: CD8C98  		call	catch
1A29: CD8C98  		call	catch
1A2C: CD8C98  		call	catch
1A2F: CD8C98  		call	catch
1A32: CD8C98  		call	catch
1A35: CD8C98  		call	catch
1A38: CD8C98  		call	catch
1A3B: CD8C98  		call	catch
1A3E: CD8C98  		call	catch
1A41: CD8C98  		call	catch
1A44: CD8C98  		call	catch
1A47: CD8C98  		call	catch
1A4A: CD8C98  		call	catch
1A4D: CD8C98  		call	catch
1A50: CD8C98  		call	catch
1A53: CD8C98  		call	catch
1A56: CD8C98  		call	catch
1A59: CD8C98  		call	catch
1A5C: CD8C98  		call	catch
1A5F: CD8C98  		call	catch
1A62: CD8C98  		call	catch
1A65: CD8C98  		call	catch
1A68: CD8C98  		call	catch
1A6B: CD8C98  		call	catch
1A6E: CD8C98  		call	catch
1A71: CD8C98  		call	catch
1A74: CD8C98  		call	catch
1A77: CD8C98  		call	catch
1A7A: CD8C98  		call	catch
1A7D: CD8C98  		call	catch
1A80: CD8C98  		call	catch
1A83: CD8C98  		call	catch
1A86: CD8C98  		call	catch
1A89: CD8C98  		call	catch
1A8C: CD8C98  		call	catch
1A8F: CD8C98  		call	catch
1A92: CD8C98  		call	catch
1A95: CD8C98  		call	catch
1A98: CD8C98  		call	catch
1A9B: CD8C98  		call	catch
1A9E: CD8C98  		call	catch
1AA1: CD8C98  		call	catch
1AA4: CD8C98  		call	catch
1AA7: CD8C98  		call	catch
1AAA: CD8C98  		call	catch
1AAD: CD8C98  		call	catch
1AB0: CD8C98  		call	catch
1AB3: CD8C98  		call	catch
1AB6: CD8C98  		call	catch
1AB9: CD8C98  		call	catch
1ABC: CD8C98  		call	catch
1ABF: CD8C98  		call	catch
1AC2: CD8C98  		call	catch
1AC5: CD8C98  		call	catch
1AC8: CD8C98  		call	catch
1ACB: CD8C98  		call	catch
1ACE: CD8C98  		call	catch
1AD1: CD8C98  		call	catch
1AD4: CD8C98  		call	catch
1AD7: CD8C98  		call	catch
1ADA: CD8C98  		call	catch
1ADD: CD8C98  		call	catch
1AE0: CD8C98  		call	catch
1AE3: CD8C98  		call	catch
1AE6: CD8C98  		call	catch
1AE9: CD8C98  		call	catch
1AEC: CD8C98  		call	catch
1AEF: CD8C98  		call	catch
1AF2: CD8C98  		call	catch
1AF5: CD8C98  		call	catch
1AF8: CD8C98  		call	catch
1AFB: CD8C98  		call	catch
1AFE: CD8C98  		call	catch
1B01: CD8C98  		call	catch
1B04: CD8C98  		call	catch
1B07: CD8C98  		call	catch
1B0A: CD8C98  		call	catch
1B0D: CD8C98  		call	catch
1B10: CD8C98  		call	catch
1B13: CD8C98  		call	catch
1B16: CD8C98  		call	catch
1B19: CD8C98  		call	catch
1B1C: CD8C98  		call	catch
1B1F: CD8C98  		call	catch
1B22: CD8C98  		call	catch
1B25: CD8C98  		call	catch
1B28: CD8C98  		call	catch
1B2B: CD8C98  		call	catch
1B2E: CD8C98  		call	catch
1B31: CD8C98  		call	catch
1B34: CD8C98  		call	catch
1B37: CD8C98  		call	catch
1B3A: CD8C98  		call	catch
1B3D: CD8C98  		call	catch
1B40: CD8C98  		call	catch
1B43: CD8C98  		call	catch
1B46: CD8C98  		call	catch
1B49: CD8C98  		call	catch
1B4C: CD8C98  		call	catch
1B4F: CD8C98  		call	catch
1B52: CD8C98  		call	catch
1B55: CD8C98  		call	catch
1B58: CD8C98  		call	catch
1B5B: CD8C98  		call	catch
1B5E: CD8C98  		call	catch
1B61: CD8C98  		call	catch
1B64: CD8C98  		call	catch
1B67: CD8C98  		call	catch
1B6A: CD8C98  		call	catch
1B6D: CD8C98  		call	catch
1B70: CD8C98  		call	catch
1B73: CD8C98  		call	catch
1B76: CD8C98  		call	catch
1B79: CD8C98  		call	catch
1B7C: CD8C98  		call	catch
1B7F: CD8C98  		call	catch
1B82: CD8C98  		call	catch
1B85: CD8C98  		call	catch
1B88: CD8C98  		call	catch
1B8B: CD8C98  		call	catch
1B8E: CD8C98  		call	catch
1B91: CD8C98  		call	catch
1B94: CD8C98  		call	catch
1B97: CD8C98  		call	catch
1B9A: CD8C98  		call	catch
1B9D: CD8C98  		call	catch
1BA0: CD8C98  		call	catch
1BA3: CD8C98  		call	catch
1BA6: CD8C98  		call	catch
1BA9: CD8C98  		call	catch
1BAC: CD8C98  		call	catch
1BAF: CD8C98  		call	catch
1BB2: CD8C98  		call	catch
1BB5: CD8C98  		call	catch
1BB8: CD8C98  		call	catch
1BBB: CD8C98  		call	catch
1BBE: CD8C98  		call	catch
1BC1: CD8C98  		call	catch
1BC4: CD8C98  		call	catch
1BC7: CD8C98  		call	catch
1BCA: CD8C98  		call	catch
1BCD: CD8C98  		call	catch
1BD0: CD8C98  		call	catch
1BD3: CD8C98  		call	catch
1BD6: CD8C98  		call	catch
1BD9: CD8C98  		call	catch
1BDC: CD8C98  		call	catch
1BDF: CD8C98  		call	catch
1BE2: CD8C98  		call	catch
1BE5: CD8C98  		call	catch
1BE8: CD8C98  		call	catch
1BEB: CD8C98  		call	catch
1BEE: CD8C98  		call	catch
1BF1: CD8C98  		call	catch
1BF4: CD8C98  		call	catch
1BF7: CD8C98  		call	catch
1BFA: CD8C98  		call	catch
1BFD: CD8C98  		call	catch
1C00: CD8C98  		call	catch
1C03: CD8C98  		call	catch
1C06: CD8C98  		call	catch
1C09: CD8C98  		call	catch
1C0C: CD8C98  		call	catch
1C0F: CD8C98  		call	catch
1C12: CD8C98  		call	catch
1C15: CD8C98  		call	catch
1C18: CD8C98  		call	catch
1C1B: CD8C98  		call	catch
1C1E: CD8C98  		call	catch
1C21: CD8C98  		call	catch
1C24: CD8C98  		call	catch
1C27: CD8C98  		call	catch
1C2A: CD8C98  		call	catch
1C2D: CD8C98  		call	catch
1C30: CD8C98  		call	catch
1C33: CD8C98  		call	catch
1C36: CD8C98  		call	catch
1C39: CD8C98  		call	catch
1C3C: CD8C98  		call	catch
1C3F: CD8C98  		call	catch
1C42: CD8C98  		call	catch
1C45: CD8C98  		call	catch
1C48: CD8C98  		call	catch
1C4B: CD8C98  		call	catch
1C4E: CD8C98  		call	catch
1C51: CD8C98  		call	catch
1C54: CD8C98  		call	catch
1C57: CD8C98  		call	catch
1C5A: CD8C98  		call	catch
1C5D: CD8C98  		call	catch
1C60: CD8C98  		call	catch
1C63: CD8C98  		call	catch
1C66: CD8C98  		call	catch
1C69: CD8C98  		call	catch
1C6C: CD8C98  		call	catch
1C6F: CD8C98  		call	catch
1C72: CD8C98  		call	catch
1C75: CD8C98  		call	catch
1C78: CD8C98  		call	catch
1C7B: CD8C98  		call	catch
1C7E: CD8C98  		call	catch
1C81: CD8C98  		call	catch
1C84: CD8C98  		call	catch
1C87: CD8C98  		call	catch
1C8A: CD8C98  		call	catch
1C8D: CD8C98  		call	catch
1C90: CD8C98  		call	catch
1C93: CD8C98  		call	catch
1C96: CD8C98  		call	catch
1C99: CD8C98  		call	catch
1C9C: CD8C98  		call	catch
1C9F: CD8C98  		call	catch
1CA2: CD8C98  		call	catch
1CA5: CD8C98  		call	catch
1CA8: CD8C98  		call	catch
1CAB: CD8C98  		call	catch
1CAE: CD8C98  		call	catch
1CB1: CD8C98  		call	catch
1CB4: CD8C98  		call	catch
1CB7: CD8C98  		call	catch
1CBA: CD8C98  		call	catch
1CBD: CD8C98  		call	catch
1CC0: CD8C98  		call	catch
1CC3: CD8C98  		call	catch
1CC6: CD8C98  		call	catch
1CC9: CD8C98  		call	catch
1CCC: CD8C98  		call	catch
1CCF: CD8C98  		call	catch
1CD2: CD8C98  		call	catch
1CD5: CD8C98  		call	catch
1CD8: CD8C98  		call	catch
1CDB: CD8C98  		call	catch
1CDE: CD8C98  		call	catch
1CE1: CD8C98  		call	catch
1CE4: CD8C98  		call	catch
1CE7: CD8C98  		call	catch
1CEA: CD8C98  		call	catch
1CED: CD8C98  		call	catch
1CF0: CD8C98  		call	catch
1CF3: CD8C98  		call	catch
1CF6: CD8C98  		call	catch
1CF9: CD8C98  		call	catch
1CFC: CD8C98  		call	catch
1CFF: CD8C98  		call	catch
1D02: CD8C98  		call	catch
1D05: CD8C98  		call	catch
1D08: CD8C98  		call	catch
1D0B: CD8C98  		call	catch
1D0E: CD8C98  		call	catch
1D11: CD8C98  		call	catch
1D14: CD8C98  		call	catch
1D17: CD8C98  		call	catch
1D1A: CD8C98  		call	catch
1D1D: CD8C98  		call	catch
1D20: CD8C98  		call	catch
1D23: CD8C98  		call	catch
1D26: CD8C98  		call	catch
1D29: CD8C98  		call	catch
1D2C: CD8C98  		call	catch
1D2F: CD8C98  		call	catch
1D32: CD8C98  		call	catch
1D35: CD8C98  		call	catch
1D38: CD8C98  		call	catch
1D3B: CD8C98  		call	catch
1D3E: CD8C98  		call	catch
1D41: CD8C98  		call	catch
1D44: CD8C98  		call	catch
1D47: CD8C98  		call	catch
1D4A: CD8C98  		call	catch
1D4D: CD8C98  		call	catch
1D50: CD8C98  		call	catch
1D53: CD8C98  		call	catch
1D56: CD8C98  		call	catch
1D59: CD8C98  		call	catch
1D5C: CD8C98  		call	catch
1D5F: CD8C98  		call	catch
1D62: CD8C98  		call	catch
1D65: CD8C98  		call	catch
1D68: CD8C98  		call	catch
1D6B: CD8C98  		call	catch
1D6E: CD8C98  		call	catch
1D71: CD8C98  		call	catch
1D74: CD8C98  		call	catch
1D77: CD8C98  		call	catch
1D7A: CD8C98  		call	catch
1D7D: CD8C98  		call	catch
1D80: CD8C98  		call	catch
1D83: CD8C98  		call	catch
1D86: CD8C98  		call	catch
1D89: CD8C98  		call	catch
1D8C: CD8C98  		call	catch
1D8F: CD8C98  		call	catch
1D92: CD8C98  		call	catch
1D95: CD8C98  		call	catch
1D98: CD8C98  		call	catch
1D9B: CD8C98  		call	catch
1D9E: CD8C98  		call	catch
1DA1: CD8C98  		call	catch
1DA4: CD8C98  		call	catch
1DA7: CD8C98  		call	catch
1DAA: CD8C98  		call	catch
1DAD: CD8C98  		call	catch
1DB0: CD8C98  		call	catch
1DB3: CD8C98  		call	catch
1DB6: CD8C98  		call	catch
1DB9: CD8C98  		call	catch
1DBC: CD8C98  		call	catch
1DBF: CD8C98  		call	catch
1DC2: CD8C98  		call	catch
1DC5: CD8C98  		call	catch
1DC8: CD8C98  		call	catch
1DCB: CD8C98  		call	catch
1DCE: CD8C98  		call	catch
1DD1: CD8C98  		call	catch
1DD4: CD8C98  		call	catch
1DD7: CD8C98  		call	catch
1DDA: CD8C98  		call	catch
1DDD: CD8C98  		call	catch
1DE0: CD8C98  		call	catch
1DE3: CD8C98  		call	catch
1DE6: CD8C98  		call	catch
1DE9: CD8C98  		call	catch
1DEC: CD8C98  		call	catch
1DEF: CD8C98  		call	catch
1DF2: CD8C98  		call	catch
1DF5: CD8C98  		call	catch
1DF8: CD8C98  		call	catch
1DFB: CD8C98  		call	catch
1DFE: CD8C98  		call	catch
1E01: CD8C98  		call	catch
1E04: CD8C98  		call	catch
1E07: CD8C98  		call	catch
1E0A: CD8C98  		call	catch
1E0D: CD8C98  		call	catch
1E10: CD8C98  		call	catch
1E13: CD8C98  		call	catch
1E16: CD8C98  		call	catch
1E19: CD8C98  		call	catch
1E1C: CD8C98  		call	catch
1E1F: CD8C98  		call	catch
1E22: CD8C98  		call	catch
1E25: CD8C98  		call	catch
1E28: CD8C98  		call	catch
1E2B: CD8C98  		call	catch
1E2E: CD8C98  		call	catch
1E31: CD8C98  		call	catch
1E34: CD8C98  		call	catch
1E37: CD8C98  		call	catch
1E3A: CD8C98  		call	catch
1E3D: CD8C98  		call	catch
1E40: CD8C98  		call	catch
1E43: CD8C98  		call	catch
1E46: CD8C98  		call	catch
1E49: CD8C98  		call	catch
1E4C: CD8C98  		call	catch
1E4F: CD8C98  		call	catch
1E52: CD8C98  		call	catch
1E55: CD8C98  		call	catch
1E58: CD8C98  		call	catch
1E5B: CD8C98  		call	catch
1E5E: CD8C98  		call	catch
1E61: CD8C98  		call	catch
1E64: CD8C98  		call	catch
1E67: CD8C98  		call	catch
1E6A: CD8C98  		call	catch
1E6D: CD8C98  		call	catch
1E70: CD8C98  		call	catch
1E73: CD8C98  		call	catch
1E76: CD8C98  		call	catch
1E79: CD8C98  		call	catch
1E7C: CD8C98  		call	catch
1E7F: CD8C98  		call	catch
1E82: CD8C98  		call	catch
1E85: CD8C98  		call	catch
1E88: CD8C98  		call	catch
1E8B: CD8C98  		call	catch
1E8E: CD8C98  		call	catch
1E91: CD8C98  		call	catch
1E94: CD8C98  		call	catch
1E97: CD8C98  		call	catch
1E9A: CD8C98  		call	catch
1E9D: CD8C98  		call	catch
1EA0: CD8C98  		call	catch
1EA3: CD8C98  		call	catch
1EA6: CD8C98  		call	catch
1EA9: CD8C98  		call	catch
1EAC: CD8C98  		call	catch
1EAF: CD8C98  		call	catch
1EB2: CD8C98  		call	catch
1EB5: CD8C98  		call	catch
1EB8: CD8C98  		call	catch
1EBB: CD8C98  		call	catch
1EBE: CD8C98  		call	catch
1EC1: CD8C98  		call	catch
1EC4: CD8C98  		call	catch
1EC7: CD8C98  		call	catch
1ECA: CD8C98  		call	catch
1ECD: CD8C98  		call	catch
1ED0: CD8C98  		call	catch
1ED3: CD8C98  		call	catch
1ED6: CD8C98  		call	catch
1ED9: CD8C98  		call	catch
1EDC: CD8C98  		call	catch
1EDF: CD8C98  		call	catch
1EE2: CD8C98  		call	catch
1EE5: CD8C98  		call	catch
1EE8: CD8C98  		call	catch
1EEB: CD8C98  		call	catch
1EEE: CD8C98  		call	catch
1EF1: CD8C98  		call	catch
1EF4: CD8C98  		call	catch
1EF7: CD8C98  		call	catch
1EFA: CD8C98  		call	catch
1EFD: CD8C98  		call	catch
1F00: CD8C98  		call	catch
1F03: CD8C98  		call	catch
1F06: CD8C98  		call	catch
1F09: CD8C98  		call	catch
1F0C: CD8C98  		call	catch
1F0F: CD8C98  		call	catch
1F12: CD8C98  		call	catch
1F15: CD8C98  		call	catch
1F18: CD8C98  		call	catch
1F1B: CD8C98  		call	catch
1F1E: CD8C98  		call	catch
1F21: CD8C98  		call	catch
1F24: CD8C98  		call	catch
1F27: CD8C98  		call	catch
1F2A: CD8C98  		call	catch
1F2D: CD8C98  		call	catch
1F30: CD8C98  		call	catch
1F33: CD8C98  		call	catch
1F36: CD8C98  		call	catch
1F39: CD8C98  		call	catch
1F3C: CD8C98  		call	catch
1F3F: CD8C98  		call	catch
1F42: CD8C98  		call	catch
1F45: CD8C98  		call	catch
1F48: CD8C98  		call	catch
1F4B: CD8C98  		call	catch
1F4E: CD8C98  		call	catch
1F51: CD8C98  		call	catch
1F54: CD8C98  		call	catch
1F57: CD8C98  		call	catch
1F5A: CD8C98  		call	catch
1F5D: CD8C98  		call	catch
1F60: CD8C98  		call	catch
1F63: CD8C98  		call	catch
1F66: CD8C98  		call	catch
1F69: CD8C98  		call	catch
1F6C: CD8C98  		call	catch
1F6F: CD8C98  		call	catch
1F72: CD8C98  		call	catch
1F75: CD8C98  		call	catch
1F78: CD8C98  		call	catch
1F7B: CD8C98  		call	catch
1F7E: CD8C98  		call	catch
1F81: CD8C98  		call	catch
1F84: CD8C98  		call	catch
1F87: CD8C98  		call	catch
1F8A: CD8C98  		call	catch
1F8D: CD8C98  		call	catch
1F90: CD8C98  		call	catch
1F93: CD8C98  		call	catch
1F96: CD8C98  		call	catch
1F99: CD8C98  		call	catch
1F9C: CD8C98  		call	catch
1F9F: CD8C98  		call	catch
1FA2: CD8C98  		call	catch
1FA5: CD8C98  		call	catch
1FA8: CD8C98  		call	catch
1FAB: CD8C98  		call	catch
1FAE: CD8C98  		call	catch
1FB1: CD8C98  		call	catch
1FB4: CD8C98  		call	catch
1FB7: CD8C98  		call	catch
1FBA: CD8C98  		call	catch
1FBD: CD8C98  		call	catch
1FC0: CD8C98  		call	catch
1FC3: CD8C98  		call	catch
1FC6: CD8C98  		call	catch
1FC9: CD8C98  		call	catch
1FCC: CD8C98  		call	catch
1FCF: CD8C98  		call	catch
1FD2: CD8C98  		call	catch
1FD5: CD8C98  		call	catch
1FD8: CD8C98  		call	catch
1FDB: CD8C98  		call	catch
1FDE: CD8C98  		call	catch
1FE1: CD8C98  		call	catch
1FE4: CD8C98  		call	catch
1FE7: CD8C98  		call	catch
1FEA: CD8C98  		call	catch
1FED: CD8C98  		call	catch
1FF0: CD8C98  		call	catch
1FF3: CD8C98  		call	catch
1FF6: CD8C98  		call	catch
1FF9: CD8C98  		call	catch
1FFC: CD8C98  		call	catch
1FFF: CD8C98  		call	catch
2002: CD8C98  		call	catch
2005: CD8C98  		call	catch
2008: CD8C98  		call	catch
200B: CD8C98  		call	catch
200E: CD8C98  		call	catch
2011: CD8C98  		call	catch
2014: CD8C98  		call	catch
2017: CD8C98  		call	catch
201A: CD8C98  		call	catch
201D: CD8C98  		call	catch
2020: CD8C98  		call	catch
2023: CD8C98  		call	catch
2026: CD8C98  		call	catch
2029: CD8C98  		call	catch
202C: CD8C98  		call	catch
202F: CD8C98  		call	catch
2032: CD8C98  		call	catch
2035: CD8C98  		call	catch
2038: CD8C98  		call	catch
203B: CD8C98  		call	catch
203E: CD8C98  		call	catch
2041: CD8C98  		call	catch
2044: CD8C98  		call	catch
2047: CD8C98  		call	catch
204A: CD8C98  		call	catch
204D: CD8C98  		call	catch
2050: CD8C98  		call	catch
2053: CD8C98  		call	catch
2056: CD8C98  		call	catch
2059: CD8C98  		call	catch
205C: CD8C98  		call	catch
205F: CD8C98  		call	catch
2062: CD8C98  		call	catch
2065: CD8C98  		call	catch
2068: CD8C98  		call	catch
206B: CD8C98  		call	catch
206E: CD8C98  		call	catch
2071: CD8C98  		call	catch
2074: CD8C98  		call	catch
2077: CD8C98  		call	catch
207A: CD8C98  		call	catch
207D: CD8C98  		call	catch
2080: CD8C98  		call	catch
2083: CD8C98  		call	catch
2086: CD8C98  		call	catch
2089: CD8C98  		call	catch
208C: CD8C98  		call	catch
208F: CD8C98  		call	catch
2092: CD8C98  		call	catch
2095: CD8C98  		call	catch
2098: CD8C98  		call	catch
209B: CD8C98  		call	catch
209E: CD8C98  		call	catch
20A1: CD8C98  		call	catch
20A4: CD8C98  		call	catch
20A7: CD8C98  		call	catch
20AA: CD8C98  		call	catch
20AD: CD8C98  		call	catch
20B0: CD8C98  		call	catch
20B3: CD8C98  		call	catch
20B6: CD8C98  		call	catch
20B9: CD8C98  		call	catch
20BC: CD8C98  		call	catch
20BF: CD8C98  		call	catch
20C2: CD8C98  		call	catch
20C5: CD8C98  		call	catch
20C8: CD8C98  		call	catch
20CB: CD8C98  		call	catch
20CE: CD8C98  		call	catch
20D1: CD8C98  		call	catch
20D4: CD8C98  		call	catch
20D7: CD8C98  		call	catch
20DA: CD8C98  		call	catch
20DD: CD8C98  		call	catch
20E0: CD8C98  		call	catch
20E3: CD8C98  		call	catch
20E6: CD8C98  		call	catch
20E9: CD8C98  		call	catch
20EC: CD8C98  		call	catch
20EF: CD8C98  		call	catch
20F2: CD8C98  		call	catch
20F5: CD8C98  		call	catch
20F8: CD8C98  		call	catch
20FB: CD8C98  		call	catch
20FE: CD8C98  		call	catch
2101: CD8C98  		call	catch
2104: CD8C98  		call	catch
2107: CD8C98  		call	catch
210A: CD8C98  		call	catch
210D: CD8C98  		call	catch
2110: CD8C98  		call	catch
2113: CD8C98  		call	catch
2116: CD8C98  		call	catch
2119: CD8C98  		call	catch
211C: CD8C98  		call	catch
211F: CD8C98  		call	catch
2122: CD8C98  		call	catch
2125: CD8C98  		call	catch
2128: CD8C98  		call	catch
212B: CD8C98  		call	catch
212E: CD8C98  		call	catch
2131: CD8C98  		call	catch
2134: CD8C98  		call	catch
2137: CD8C98  		call	catch
213A: CD8C98  		call	catch
213D: CD8C98  		call	catch
2140: CD8C98  		call	catch
2143: CD8C98  		call	catch
2146: CD8C98  		call	catch
2149: CD8C98  		call	catch
214C: CD8C98  		call	catch
214F: CD8C98  		call	catch
2152: CD8C98  		call	catch
2155: CD8C98  		call	catch
2158: CD8C98  		call	catch
215B: CD8C98  		call	catch
215E: CD8C98  		call	catch
2161: CD8C98  		call	catch
2164: CD8C98  		call	catch
2167: CD8C98  		call	catch
216A: CD8C98  		call	catch
216D: CD8C98  		call	catch
2170: CD8C98  		call	catch
2173: CD8C98  		call	catch
2176: CD8C98  		call	catch
2179: CD8C98  		call	catch
217C: CD8C98  		call	catch
217F: CD8C98  		call	catch
2182: CD8C98  		call	catch
2185: CD8C98  		call	catch
2188: CD8C98  		call	catch
218B: CD8C98  		call	catch
218E: CD8C98  		call	catch
2191: CD8C98  		call	catch
2194: CD8C98  		call	catch
2197: CD8C98  		call	catch
219A: CD8C98  		call	catch
219D: CD8C98  		call	catch
21A0: CD8C98  		call	catch
21A3: CD8C98  		call	catch
21A6: CD8C98  		call	catch
21A9: CD8C98  		call	catch
21AC: CD8C98  		call	catch
21AF: CD8C98  		call	catch
21B2: CD8C98  		call	catch
21B5: CD8C98  		call	catch
21B8: CD8C98  		call	catch
21BB: CD8C98  		call	catch
21BE: CD8C98  		call	catch
21C1: CD8C98  		call	catch
21C4: CD8C98  		call	catch
21C7: CD8C98  		call	catch
21CA: CD8C98  		call	catch
21CD: CD8C98  		call	catch
21D0: CD8C98  		call	catch
21D3: CD8C98  		call	catch
21D6: CD8C98  		call	catch
21D9: CD8C98  		call	catch
21DC: CD8C98  		call	catch
21DF: CD8C98  		call	catch
21E2: CD8C98  		call	catch
21E5: CD8C98  		call	catch
21E8: CD8C98  		call	catch
21EB: CD8C98  		call	catch
21EE: CD8C98  		call	catch
21F1: CD8C98  		call	catch
21F4: CD8C98  		call	catch
21F7: CD8C98  		call	catch
21FA: CD8C98  		call	catch
21FD: CD8C98  		call	catch
2200: CD8C98  		call	catch
2203: CD8C98  		call	catch
2206: CD8C98  		call	catch
2209: CD8C98  		call	catch
220C: CD8C98  		call	catch
220F: CD8C98  		call	catch
2212: CD8C98  		call	catch
2215: CD8C98  		call	catch
2218: CD8C98  		call	catch
221B: CD8C98  		call	catch
221E: CD8C98  		call	catch
2221: CD8C98  		call	catch
2224: CD8C98  		call	catch
2227: CD8C98  		call	catch
222A: CD8C98  		call	catch
222D: CD8C98  		call	catch
2230: CD8C98  		call	catch
2233: CD8C98  		call	catch
2236: CD8C98  		call	catch
2239: CD8C98  		call	catch
223C: CD8C98  		call	catch
223F: CD8C98  		call	catch
2242: CD8C98  		call	catch
2245: CD8C98  		call	catch
2248: CD8C98  		call	catch
224B: CD8C98  		call	catch
224E: CD8C98  		call	catch
2251: CD8C98  		call	catch
2254: CD8C98  		call	catch
2257: CD8C98  		call	catch
225A: CD8C98  		call	catch
225D: CD8C98  		call	catch
2260: CD8C98  		call	catch
2263: CD8C98  		call	catch
2266: CD8C98  		call	catch
2269: CD8C98  		call	catch
226C: CD8C98  		call	catch
226F: CD8C98  		call	catch
2272: CD8C98  		call	catch
2275: CD8C98  		call	catch
2278: CD8C98  		call	catch
227B: CD8C98  		call	catch
227E: CD8C98  		call	catch
2281: CD8C98  		call	catch
2284: CD8C98  		call	catch
2287: CD8C98  		call	catch
228A: CD8C98  		call	catch
228D: CD8C98  		call	catch
2290: CD8C98  		call	catch
2293: CD8C98  		call	catch
2296: CD8C98  		call	catch
2299: CD8C98  		call	catch
229C: CD8C98  		call	catch
229F: CD8C98  		call	catch
22A2: CD8C98  		call	catch
22A5: CD8C98  		call	catch
22A8: CD8C98  		call	catch
22AB: CD8C98  		call	catch
22AE: CD8C98  		call	catch
22B1: CD8C98  		call	catch
22B4: CD8C98  		call	catch
22B7: CD8C98  		call	catch
22BA: CD8C98  		call	catch
22BD: CD8C98  		call	catch
22C0: CD8C98  		call	catch
22C3: CD8C98  		call	catch
22C6: CD8C98  		call	catch
22C9: CD8C98  		call	catch
22CC: CD8C98  		call	catch
22CF: CD8C98  		call	catch
22D2: CD8C98  		call	catch
22D5: CD8C98  		call	catch
22D8: CD8C98  		call	catch
22DB: CD8C98  		call	catch
22DE: CD8C98  		call	catch
22E1: CD8C98  		call	catch
22E4: CD8C98  		call	catch
22E7: CD8C98  		call	catch
22EA: CD8C98  		call	catch
22ED: CD8C98  		call	catch
22F0: CD8C98  		call	catch
22F3: CD8C98  		call	catch
22F6: CD8C98  		call	catch
22F9: CD8C98  		call	catch
22FC: CD8C98  		call	catch
22FF: CD8C98  		call	catch
2302: CD8C98  		call	catch
2305: CD8C98  		call	catch
2308: CD8C98  		call	catch
230B: CD8C98  		call	catch
230E: CD8C98  		call	catch
2311: CD8C98  		call	catch
2314: CD8C98  		call	catch
2317: CD8C98  		call	catch
231A: CD8C98  		call	catch
231D: CD8C98  		call	catch
2320: CD8C98  		call	catch
2323: CD8C98  		call	catch
2326: CD8C98  		call	catch
2329: CD8C98  		call	catch
232C: CD8C98  		call	catch
232F: CD8C98  		call	catch
2332: CD8C98  		call	catch
2335: CD8C98  		call	catch
2338: CD8C98  		call	catch
233B: CD8C98  		call	catch
233E: CD8C98  		call	catch
2341: CD8C98  		call	catch
2344: CD8C98  		call	catch
2347: CD8C98  		call	catch
234A: CD8C98  		call	catch
234D: CD8C98  		call	catch
2350: CD8C98  		call	catch
2353: CD8C98  		call	catch
2356: CD8C98  		call	catch
2359: CD8C98  		call	catch
235C: CD8C98  		call	catch
235F: CD8C98  		call	catch
2362: CD8C98  		call	catch
2365: CD8C98  		call	catch
2368: CD8C98  		call	catch
236B: CD8C98  		call	catch
236E: CD8C98  		call	catch
2371: CD8C98  		call	catch
2374: CD8C98  		call	catch
2377: CD8C98  		call	catch
237A: CD8C98  		call	catch
237D: CD8C98  		call	catch
2380: CD8C98  		call	catch
2383: CD8C98  		call	catch
2386: CD8C98  		call	catch
2389: CD8C98  		call	catch
238C: CD8C98  		call	catch
238F: CD8C98  		call	catch
2392: CD8C98  		call	catch
2395: CD8C98  		call	catch
2398: CD8C98  		call	catch
239B: CD8C98  		call	catch
239E: CD8C98  		call	catch
23A1: CD8C98  		call	catch
23A4: CD8C98  		call	catch
23A7: CD8C98  		call	catch
23AA: CD8C98  		call	catch
23AD: CD8C98  		call	catch
23B0: CD8C98  		call	catch
23B3: CD8C98  		call	catch
23B6: CD8C98  		call	catch
23B9: CD8C98  		call	catch
23BC: CD8C98  		call	catch
23BF: CD8C98  		call	catch
23C2: CD8C98  		call	catch
23C5: CD8C98  		call	catch
23C8: CD8C98  		call	catch
23CB: CD8C98  		call	catch
23CE: CD8C98  		call	catch
23D1: CD8C98  		call	catch
23D4: CD8C98  		call	catch
23D7: CD8C98  		call	catch
23DA: CD8C98  		call	catch
23DD: CD8C98  		call	catch
23E0: CD8C98  		call	catch
23E3: CD8C98  		call	catch
23E6: CD8C98  		call	catch
23E9: CD8C98  		call	catch
23EC: CD8C98  		call	catch
23EF: CD8C98  		call	catch
23F2: CD8C98  		call	catch
23F5: CD8C98  		call	catch
23F8: CD8C98  		call	catch
23FB: CD8C98  		call	catch
23FE: CD8C98  		call	catch
2401: CD8C98  		call	catch
2404: CD8C98  		call	catch
2407: CD8C98  		call	catch
240A: CD8C98  		call	catch
240D: CD8C98  		call	catch
2410: CD8C98  		call	catch
2413: CD8C98  		call	catch
2416: CD8C98  		call	catch
2419: CD8C98  		call	catch
241C: CD8C98  		call	catch
241F: CD8C98  		call	catch
2422: CD8C98  		call	catch
2425: CD8C98  		call	catch
2428: CD8C98  		call	catch
242B: CD8C98  		call	catch
242E: CD8C98  		call	catch
2431: CD8C98  		call	catch
2434: CD8C98  		call	catch
2437: CD8C98  		call	catch
243A: CD8C98  		call	catch
243D: CD8C98  		call	catch
2440: CD8C98  		call	catch
2443: CD8C98  		call	catch
2446: CD8C98  		call	catch
2449: CD8C98  		call	catch
244C: CD8C98  		call	catch
244F: CD8C98  		call	catch
2452: CD8C98  		call	catch
2455: CD8C98  		call	catch
2458: CD8C98  		call	catch
245B: CD8C98  		call	catch
245E: CD8C98  		call	catch
2461: CD8C98  		call	catch
2464: CD8C98  		call	catch
2467: CD8C98  		call	catch
246A: CD8C98  		call	catch
246D: CD8C98  		call	catch
2470: CD8C98  		call	catch
2473: CD8C98  		call	catch
2476: CD8C98  		call	catch
2479: CD8C98  		call	catch
247C: CD8C98  		call	catch
247F: CD8C98  		call	catch
2482: CD8C98  		call	catch
2485: CD8C98  		call	catch
2488: CD8C98  		call	catch
248B: CD8C98  		call	catch
248E: CD8C98  		call	catch
2491: CD8C98  		call	catch
2494: CD8C98  		call	catch
2497: CD8C98  		call	catch
249A: CD8C98  		call	catch
249D: CD8C98  		call	catch
24A0: CD8C98  		call	catch
24A3: CD8C98  		call	catch
24A6: CD8C98  		call	catch
24A9: CD8C98  		call	catch
24AC: CD8C98  		call	catch
24AF: CD8C98  		call	catch
24B2: CD8C98  		call	catch
24B5: CD8C98  		call	catch
24B8: CD8C98  		call	catch
24BB: CD8C98  		call	catch
24BE: CD8C98  		call	catch
24C1: CD8C98  		call	catch
24C4: CD8C98  		call	catch
24C7: CD8C98  		call	catch
24CA: CD8C98  		call	catch
24CD: CD8C98  		call	catch
24D0: CD8C98  		call	catch
24D3: CD8C98  		call	catch
24D6: CD8C98  		call	catch
24D9: CD8C98  		call	catch
24DC: CD8C98  		call	catch
24DF: CD8C98  		call	catch
24E2: CD8C98  		call	catch
24E5: CD8C98  		call	catch
24E8: CD8C98  		call	catch
24EB: CD8C98  		call	catch
24EE: CD8C98  		call	catch
24F1: CD8C98  		call	catch
24F4: CD8C98  		call	catch
24F7: CD8C98  		call	catch
24FA: CD8C98  		call	catch
24FD: CD8C98  		call	catch
2500: CD8C98  		call	catch
2503: CD8C98  		call	catch
2506: CD8C98  		call	catch
2509: CD8C98  		call	catch
250C: CD8C98  		call	catch
250F: CD8C98  		call	catch
2512: CD8C98  		call	catch
2515: CD8C98  		call	catch
2518: CD8C98  		call	catch
251B: CD8C98  		call	catch
251E: CD8C98  		call	catch
2521: CD8C98  		call	catch
2524: CD8C98  		call	catch
2527: CD8C98  		call	catch
252A: CD8C98  		call	catch
252D: CD8C98  		call	catch
2530: CD8C98  		call	catch
2533: CD8C98  		call	catch
2536: CD8C98  		call	catch
2539: CD8C98  		call	catch
253C: CD8C98  		call	catch
253F: CD8C98  		call	catch
2542: CD8C98  		call	catch
2545: CD8C98  		call	catch
2548: CD8C98  		call	catch
254B: CD8C98  		call	catch
254E: CD8C98  		call	catch
2551: CD8C98  		call	catch
2554: CD8C98  		call	catch
2557: CD8C98  		call	catch
255A: CD8C98  		call	catch
255D: CD8C98  		call	catch
2560: CD8C98  		call	catch
2563: CD8C98  		call	catch
2566: CD8C98  		call	catch
2569: CD8C98  		call	catch
256C: CD8C98  		call	catch
256F: CD8C98  		call	catch
2572: CD8C98  		call	catch
2575: CD8C98  		call	catch
2578: CD8C98  		call	catch
257B: CD8C98  		call	catch
257E: CD8C98  		call	catch
2581: CD8C98  		call	catch
2584: CD8C98  		call	catch
2587: CD8C98  		call	catch
258A: CD8C98  		call	catch
258D: CD8C98  		call	catch
2590: CD8C98  		call	catch
2593: CD8C98  		call	catch
2596: CD8C98  		call	catch
2599: CD8C98  		call	catch
259C: CD8C98  		call	catch
259F: CD8C98  		call	catch
25A2: CD8C98  		call	catch
25A5: CD8C98  		call	catch
25A8: CD8C98  		call	catch
25AB: CD8C98  		call	catch
25AE: CD8C98  		call	catch
25B1: CD8C98  		call	catch
25B4: CD8C98  		call	catch
25B7: CD8C98  		call	catch
25BA: CD8C98  		call	catch
25BD: CD8C98  		call	catch
25C0: CD8C98  		call	catch
25C3: CD8C98  		call	catch
25C6: CD8C98  		call	catch
25C9: CD8C98  		call	catch
25CC: CD8C98  		call	catch
25CF: CD8C98  		call	catch
25D2: CD8C98  		call	catch
25D5: CD8C98  		call	catch
25D8: CD8C98  		call	catch
25DB: CD8C98  		call	catch
25DE: CD8C98  		call	catch
25E1: CD8C98  		call	catch
25E4: CD8C98  		call	catch
25E7: CD8C98  		call	catch
25EA: CD8C98  		call	catch
25ED: CD8C98  		call	catch
25F0: CD8C98  		call	catch
25F3: CD8C98  		call	catch
25F6: CD8C98  		call	catch
25F9: CD8C98  		call	catch
25FC: CD8C98  		call	catch
25FF: CD8C98  		call	catch
2602: CD8C98  		call	catch
2605: CD8C98  		call	catch
2608: CD8C98  		call	catch
260B: CD8C98  		call	catch
260E: CD8C98  		call	catch
2611: CD8C98  		call	catch
2614: CD8C98  		call	catch
2617: CD8C98  		call	catch
261A: CD8C98  		call	catch
261D: CD8C98  		call	catch
2620: CD8C98  		call	catch
2623: CD8C98  		call	catch
2626: CD8C98  		call	catch
2629: CD8C98  		call	catch
262C: CD8C98  		call	catch
262F: CD8C98  		call	catch
2632: CD8C98  		call	catch
2635: CD8C98  		call	catch
2638: CD8C98  		call	catch
263B: CD8C98  		call	catch
263E: CD8C98  		call	catch
2641: CD8C98  		call	catch
2644: CD8C98  		call	catch
2647: CD8C98  		call	catch
264A: CD8C98  		call	catch
264D: CD8C98  		call	catch
2650: CD8C98  		call	catch
2653: CD8C98  		call	catch
2656: CD8C98  		call	catch
2659: CD8C98  		call	catch
265C: CD8C98  		call	catch
265F: CD8C98  		call	catch
2662: CD8C98  		call	catch
2665: CD8C98  		call	catch
2668: CD8C98  		call	catch
266B: CD8C98  		call	catch
266E: CD8C98  		call	catch
2671: CD8C98  		call	catch
2674: CD8C98  		call	catch
2677: CD8C98  		call	catch
267A: CD8C98  		call	catch
267D: CD8C98  		call	catch
2680: CD8C98  		call	catch
2683: CD8C98  		call	catch
2686: CD8C98  		call	catch
2689: CD8C98  		call	catch
268C: CD8C98  		call	catch
268F: CD8C98  		call	catch
2692: CD8C98  		call	catch
2695: CD8C98  		call	catch
2698: CD8C98  		call	catch
269B: CD8C98  		call	catch
269E: CD8C98  		call	catch
26A1: CD8C98  		call	catch
26A4: CD8C98  		call	catch
26A7: CD8C98  		call	catch
26AA: CD8C98  		call	catch
26AD: CD8C98  		call	catch
26B0: CD8C98  		call	catch
26B3: CD8C98  		call	catch
26B6: CD8C98  		call	catch
26B9: CD8C98  		call	catch
26BC: CD8C98  			call	catch
26BF: CD8C98  		call	catch
26C2: CD8C98  		call	catch
26C5: CD8C98  		call	catch
26C8: CD8C98  		call	catch
26CB: CD8C98  		call	catch
26CE: CD8C98  		call	catch
26D1: CD8C98  		call	catch
26D4: CD8C98  		call	catch
26D7: CD8C98  		call	catch
26DA: CD8C98  		call	catch
26DD: CD8C98  		call	catch
26E0: CD8C98  		call	catch
26E3: CD8C98  		call	catch
26E6: CD8C98  		call	catch
26E9: CD8C98  		call	catch
26EC: CD8C98  		call	catch
26EF: CD8C98  		call	catch
26F2: CD8C98  		call	catch
26F5: CD8C98  		call	catch
26F8: CD8C98  		call	catch
26FB: CD8C98  		call	catch
26FE: CD8C98  		call	catch
2701: CD8C98  		call	catch
2704: CD8C98  		call	catch
2707: CD8C98  		call	catch
270A: CD8C98  		call	catch
270D: CD8C98  		call	catch
2710: CD8C98  		call	catch
2713: CD8C98  		call	catch
2716: CD8C98  		call	catch
2719: CD8C98  		call	catch
271C: CD8C98  		call	catch
271F: CD8C98  		call	catch
2722: CD8C98  		call	catch
2725: CD8C98  		call	catch
2728: CD8C98  		call	catch
272B: CD8C98  		call	catch
272E: CD8C98  		call	catch
2731: CD8C98  		call	catch
2734: CD8C98  		call	catch
2737: CD8C98  		call	catch
273A: CD8C98  		call	catch
273D: CD8C98  		call	catch
2740: CD8C98  		call	catch
2743: CD8C98  		call	catch
2746: CD8C98  		call	catch
2749: CD8C98  		call	catch
274C: CD8C98  		call	catch
274F: CD8C98  		call	catch
2752: CD8C98  		call	catch
2755: CD8C98  		call	catch
2758: CD8C98  		call	catch
275B: CD8C98  		call	catch
275E: CD8C98  		call	catch
2761: CD8C98  		call	catch
2764: CD8C98  		call	catch
2767: CD8C98  		call	catch
276A: CD8C98  		call	catch
276D: CD8C98  		call	catch
2770: CD8C98  		call	catch
2773: CD8C98  		call	catch
2776: CD8C98  		call	catch
2779: CD8C98  		call	catch
277C: CD8C98  		call	catch
277F: CD8C98  		call	catch
2782: CD8C98  		call	catch
2785: CD8C98  		call	catch
2788: CD8C98  		call	catch
278B: CD8C98  		call	catch
278E: CD8C98  		call	catch
2791: CD8C98  		call	catch
2794: CD8C98  		call	catch
2797: CD8C98  		call	catch
279A: CD8C98  		call	catch
279D: CD8C98  		call	catch
27A0: CD8C98  		call	catch
27A3: CD8C98  		call	catch
27A6: CD8C98  		call	catch
27A9: CD8C98  		call	catch
27AC: CD8C98  		call	catch
27AF: CD8C98  		call	catch
27B2: CD8C98  		call	catch
27B5: CD8C98  		call	catch
27B8: CD8C98  		call	catch
27BB: CD8C98  		call	catch
27BE: CD8C98  		call	catch
27C1: CD8C98  		call	catch
27C4: CD8C98  		call	catch
27C7: CD8C98  		call	catch
27CA: CD8C98  		call	catch
27CD: CD8C98  		call	catch
27D0: CD8C98  		call	catch
27D3: CD8C98  		call	catch
27D6: CD8C98  		call	catch
27D9: CD8C98  		call	catch
27DC: CD8C98  		call	catch
27DF: CD8C98  		call	catch
27E2: CD8C98  		call	catch
27E5: CD8C98  		call	catch
27E8: CD8C98  		call	catch
27EB: CD8C98  		call	catch
27EE: CD8C98  		call	catch
27F1: CD8C98  		call	catch
27F4: CD8C98  		call	catch
27F7: CD8C98  		call	catch
27FA: CD8C98  		call	catch
27FD: CD8C98  		call	catch
2800: CD8C98  		call	catch
2803: CD8C98  		call	catch
2806: CD8C98  		call	catch
2809: CD8C98  		call	catch
280C: CD8C98  		call	catch
280F: CD8C98  		call	catch
2812: CD8C98  		call	catch
2815: CD8C98  		call	catch
2818: CD8C98  		call	catch
281B: CD8C98  		call	catch
281E: CD8C98  		call	catch
2821: CD8C98  		call	catch
2824: CD8C98  		call	catch
2827: CD8C98  		call	catch
282A: CD8C98  		call	catch
282D: CD8C98  		call	catch
2830: CD8C98  		call	catch
2833: CD8C98  		call	catch
2836: CD8C98  		call	catch
2839: CD8C98  		call	catch
283C: CD8C98  		call	catch
283F: CD8C98  		call	catch
2842: CD8C98  		call	catch
2845: CD8C98  		call	catch
2848: CD8C98  		call	catch
284B: CD8C98  		call	catch
284E: CD8C98  		call	catch
2851: CD8C98  		call	catch
2854: CD8C98  		call	catch
2857: CD8C98  		call	catch
285A: CD8C98  		call	catch
285D: CD8C98  		call	catch
2860: CD8C98  		call	catch
2863: CD8C98  		call	catch
2866: CD8C98  		call	catch
2869: CD8C98  		call	catch
286C: CD8C98  		call	catch
286F: CD8C98  		call	catch
2872: CD8C98  		call	catch
2875: CD8C98  		call	catch
2878: CD8C98  		call	catch
287B: CD8C98  		call	catch
287E: CD8C98  		call	catch
2881: CD8C98  		call	catch
2884: CD8C98  		call	catch
2887: CD8C98  		call	catch
288A: CD8C98  		call	catch
288D: CD8C98  		call	catch
2890: CD8C98  		call	catch
2893: CD8C98  		call	catch
2896: CD8C98  		call	catch
2899: CD8C98  		call	catch
289C: CD8C98  		call	catch
289F: CD8C98  		call	catch
28A2: CD8C98  		call	catch
28A5: CD8C98  		call	catch
28A8: CD8C98  		call	catch
28AB: CD8C98  		call	catch
28AE: CD8C98  		call	catch
28B1: CD8C98  		call	catch
28B4: CD8C98  		call	catch
28B7: CD8C98  		call	catch
28BA: CD8C98  		call	catch
28BD: CD8C98  		call	catch
28C0: CD8C98  		call	catch
28C3: CD8C98  		call	catch
28C6: CD8C98  		call	catch
28C9: CD8C98  		call	catch
28CC: CD8C98  		call	catch
28CF: CD8C98  		call	catch
28D2: CD8C98  		call	catch
28D5: CD8C98  		call	catch
28D8: CD8C98  		call	catch
28DB: CD8C98  		call	catch
28DE: CD8C98  		call	catch
28E1: CD8C98  		call	catch
28E4: CD8C98  		call	catch
28E7: CD8C98  		call	catch
28EA: CD8C98  		call	catch
28ED: CD8C98  		call	catch
28F0: CD8C98  		call	catch
28F3: CD8C98  		call	catch
28F6: CD8C98  		call	catch
28F9: CD8C98  		call	catch
28FC: CD8C98  		call	catch
28FF: CD8C98  		call	catch
2902: CD8C98  		call	catch
2905: CD8C98  		call	catch
2908: CD8C98  		call	catch
290B: CD8C98  		call	catch
290E: CD8C98  		call	catch
2911: CD8C98  		call	catch
2914: CD8C98  		call	catch
2917: CD8C98  		call	catch
291A: CD8C98  		call	catch
291D: CD8C98  		call	catch
2920: CD8C98  		call	catch
2923: CD8C98  		call	catch
2926: CD8C98  		call	catch
2929: CD8C98  		call	catch
292C: CD8C98  		call	catch
292F: CD8C98  		call	catch
2932: CD8C98  		call	catch
2935: CD8C98  		call	catch
2938: CD8C98  		call	catch
293B: CD8C98  		call	catch
293E: CD8C98  		call	catch
2941: CD8C98  		call	catch
2944: CD8C98  		call	catch
2947: CD8C98  		call	catch
294A: CD8C98  		call	catch
294D: CD8C98  		call	catch
2950: CD8C98  		call	catch
2953: CD8C98  		call	catch
2956: CD8C98  		call	catch
2959: CD8C98  		call	catch
295C: CD8C98  		call	catch
295F: CD8C98  		call	catch
2962: CD8C98  		call	catch
2965: CD8C98  		call	catch
2968: CD8C98  		call	catch
296B: CD8C98  		call	catch
296E: CD8C98  		call	catch
2971: CD8C98  		call	catch
2974: CD8C98  		call	catch
2977: CD8C98  		call	catch
297A: CD8C98  		call	catch
297D: CD8C98  		call	catch
2980: CD8C98  		call	catch
2983: CD8C98  		call	catch
2986: CD8C98  		call	catch
2989: CD8C98  		call	catch
298C: CD8C98  		call	catch
298F: CD8C98  		call	catch
2992: CD8C98  		call	catch
2995: CD8C98  		call	catch
2998: CD8C98  		call	catch
299B: CD8C98  		call	catch
299E: CD8C98  		call	catch
29A1: CD8C98  		call	catch
29A4: CD8C98  		call	catch
29A7: CD8C98  		call	catch
29AA: CD8C98  		call	catch
29AD: CD8C98  		call	catch
29B0: CD8C98  		call	catch
29B3: CD8C98  		call	catch
29B6: CD8C98  		call	catch
29B9: CD8C98  		call	catch
29BC: CD8C98  		call	catch
29BF: CD8C98  		call	catch
29C2: CD8C98  		call	catch
29C5: CD8C98  		call	catch
29C8: CD8C98  		call	catch
29CB: CD8C98  		call	catch
29CE: CD8C98  		call	catch
29D1: CD8C98  		call	catch
29D4: CD8C98  		call	catch
29D7: CD8C98  		call	catch
29DA: CD8C98  		call	catch
29DD: CD8C98  		call	catch
29E0: CD8C98  		call	catch
29E3: CD8C98  		call	catch
29E6: CD8C98  		call	catch
29E9: CD8C98  		call	catch
29EC: CD8C98  		call	catch
29EF: CD8C98  		call	catch
29F2: CD8C98  		call	catch
29F5: CD8C98  		call	catch
29F8: CD8C98  		call	catch
29FB: CD8C98  		call	catch
29FE: CD8C98  		call	catch
2A01: CD8C98  		call	catch
2A04: CD8C98  		call	catch
2A07: CD8C98  		call	catch
2A0A: CD8C98  		call	catch
2A0D: CD8C98  		call	catch
2A10: CD8C98  		call	catch
2A13: CD8C98  		call	catch
2A16: CD8C98  		call	catch
2A19: CD8C98  		call	catch
2A1C: CD8C98  		call	catch
2A1F: CD8C98  		call	catch
2A22: CD8C98  		call	catch
2A25: CD8C98  		call	catch
2A28: CD8C98  		call	catch
2A2B: CD8C98  		call	catch
2A2E: CD8C98  		call	catch
2A31: CD8C98  		call	catch
2A34: CD8C98  		call	catch
2A37: CD8C98  		call	catch
2A3A: CD8C98  		call	catch
2A3D: CD8C98  		call	catch
2A40: CD8C98  		call	catch
2A43: CD8C98  		call	catch
2A46: CD8C98  		call	catch
2A49: CD8C98  		call	catch
2A4C: CD8C98  		call	catch
2A4F: CD8C98  		call	catch
2A52: CD8C98  		call	catch
2A55: CD8C98  		call	catch
2A58: CD8C98  		call	catch
2A5B: CD8C98  		call	catch
2A5E: CD8C98  		call	catch
2A61: CD8C98  		call	catch
2A64: CD8C98  		call	catch
2A67: CD8C98  		call	catch
2A6A: CD8C98  		call	catch
2A6D: CD8C98  		call	catch
2A70: CD8C98  		call	catch
2A73: CD8C98  		call	catch
2A76: CD8C98  		call	catch
2A79: CD8C98  		call	catch
2A7C: CD8C98  		call	catch
2A7F: CD8C98  		call	catch
2A82: CD8C98  		call	catch
2A85: CD8C98  		call	catch
2A88: CD8C98  		call	catch
2A8B: CD8C98  		call	catch
2A8E: CD8C98  		call	catch
2A91: CD8C98  		call	catch
2A94: CD8C98  		call	catch
2A97: CD8C98  		call	catch
2A9A: CD8C98  		call	catch
2A9D: CD8C98  		call	catch
2AA0: CD8C98  		call	catch
2AA3: CD8C98  		call	catch
2AA6: CD8C98  		call	catch
2AA9: CD8C98  		call	catch
2AAC: CD8C98  		call	catch
2AAF: CD8C98  		call	catch
2AB2: CD8C98  		call	catch
2AB5: CD8C98  		call	catch
2AB8: CD8C98  		call	catch
2ABB: CD8C98  		call	catch
2ABE: CD8C98  		call	catch
2AC1: CD8C98  		call	catch
2AC4: CD8C98  		call	catch
2AC7: CD8C98  		call	catch
2ACA: CD8C98  		call	catch
2ACD: CD8C98  		call	catch
2AD0: CD8C98  		call	catch
2AD3: CD8C98  		call	catch
2AD6: CD8C98  		call	catch
2AD9: CD8C98  		call	catch
2ADC: CD8C98  		call	catch
2ADF: CD8C98  		call	catch
2AE2: CD8C98  		call	catch
2AE5: CD8C98  		call	catch
2AE8: CD8C98  		call	catch
2AEB: CD8C98  		call	catch
2AEE: CD8C98  		call	catch
2AF1: CD8C98  		call	catch
2AF4: CD8C98  		call	catch
2AF7: CD8C98  		call	catch
2AFA: CD8C98  		call	catch
2AFD: CD8C98  		call	catch
2B00: CD8C98  		call	catch
2B03: CD8C98  		call	catch
2B06: CD8C98  		call	catch
2B09: CD8C98  		call	catch
2B0C: CD8C98  		call	catch
2B0F: CD8C98  		call	catch
2B12: CD8C98  		call	catch
2B15: CD8C98  		call	catch
2B18: CD8C98  		call	catch
2B1B: CD8C98  		call	catch
2B1E: CD8C98  		call	catch
2B21: CD8C98  		call	catch
2B24: CD8C98  		call	catch
2B27: CD8C98  		call	catch
2B2A: CD8C98  		call	catch
2B2D: CD8C98  		call	catch
2B30: CD8C98  		call	catch
2B33: CD8C98  		call	catch
2B36: CD8C98  		call	catch
2B39: CD8C98  		call	catch
2B3C: CD8C98  		call	catch
2B3F: CD8C98  		call	catch
2B42: CD8C98  		call	catch
2B45: CD8C98  		call	catch
2B48: CD8C98  		call	catch
2B4B: CD8C98  		call	catch
2B4E: CD8C98  		call	catch
2B51: CD8C98  		call	catch
2B54: CD8C98  		call	catch
2B57: CD8C98  		call	catch
2B5A: CD8C98  		call	catch
2B5D: CD8C98  		call	catch
2B60: CD8C98  		call	catch
2B63: CD8C98  		call	catch
2B66: CD8C98  		call	catch
2B69: CD8C98  		call	catch
2B6C: CD8C98  		call	catch
2B6F: CD8C98  		call	catch
2B72: CD8C98  		call	catch
2B75: CD8C98  		call	catch
2B78: CD8C98  		call	catch
2B7B: CD8C98  		call	catch
2B7E: CD8C98  		call	catch
2B81: CD8C98  		call	catch
2B84: CD8C98  		call	catch
2B87: CD8C98  		call	catch
2B8A: CD8C98  		call	catch
2B8D: CD8C98  		call	catch
2B90: CD8C98  		call	catch
2B93: CD8C98  		call	catch
2B96: CD8C98  		call	catch
2B99: CD8C98  		call	catch
2B9C: CD8C98  		call	catch
2B9F: CD8C98  		call	catch
2BA2: CD8C98  		call	catch
2BA5: CD8C98  		call	catch
2BA8: CD8C98  		call	catch
2BAB: CD8C98  		call	catch
2BAE: CD8C98  		call	catch
2BB1: CD8C98  		call	catch
2BB4: CD8C98  		call	catch
2BB7: CD8C98  		call	catch
2BBA: CD8C98  		call	catch
2BBD: CD8C98  		call	catch
2BC0: CD8C98  		call	catch
2BC3: CD8C98  		call	catch
2BC6: CD8C98  		call	catch
2BC9: CD8C98  		call	catch
2BCC: CD8C98  		call	catch
2BCF: CD8C98  		call	catch
2BD2: CD8C98  		call	catch
2BD5: CD8C98  		call	catch
2BD8: CD8C98  		call	catch
2BDB: CD8C98  		call	catch
2BDE: CD8C98  		call	catch
2BE1: CD8C98  		call	catch
2BE4: CD8C98  		call	catch
2BE7: CD8C98  		call	catch
2BEA: CD8C98  		call	catch
2BED: CD8C98  		call	catch
2BF0: CD8C98  		call	catch
2BF3: CD8C98  		call	catch
2BF6: CD8C98  		call	catch
2BF9: CD8C98  		call	catch
2BFC: CD8C98  		call	catch
2BFF: CD8C98  		call	catch
2C02: CD8C98  		call	catch
2C05: CD8C98  		call	catch
2C08: CD8C98  		call	catch
2C0B: CD8C98  		call	catch
2C0E: CD8C98  		call	catch
2C11: CD8C98  		call	catch
2C14: CD8C98  		call	catch
2C17: CD8C98  		call	catch
2C1A: CD8C98  		call	catch
2C1D: CD8C98  		call	catch
2C20: CD8C98  		call	catch
2C23: CD8C98  		call	catch
2C26: CD8C98  		call	catch
2C29: CD8C98  		call	catch
2C2C: CD8C98  		call	catch
2C2F: CD8C98  		call	catch
2C32: CD8C98  		call	catch
2C35: CD8C98  		call	catch
2C38: CD8C98  		call	catch
2C3B: CD8C98  		call	catch
2C3E: CD8C98  		call	catch
2C41: CD8C98  		call	catch
2C44: CD8C98  		call	catch
2C47: CD8C98  		call	catch
2C4A: CD8C98  		call	catch
2C4D: CD8C98  		call	catch
2C50: CD8C98  		call	catch
2C53: CD8C98  		call	catch
2C56: CD8C98  		call	catch
2C59: CD8C98  		call	catch
2C5C: CD8C98  		call	catch
2C5F: CD8C98  		call	catch
2C62: CD8C98  		call	catch
2C65: CD8C98  		call	catch
2C68: CD8C98  		call	catch
2C6B: CD8C98  		call	catch
2C6E: CD8C98  		call	catch
2C71: CD8C98  		call	catch
2C74: CD8C98  		call	catch
2C77: CD8C98  		call	catch
2C7A: CD8C98  		call	catch
2C7D: CD8C98  		call	catch
2C80: CD8C98  		call	catch
2C83: CD8C98  		call	catch
2C86: CD8C98  		call	catch
2C89: CD8C98  		call	catch
2C8C: CD8C98  		call	catch
2C8F: CD8C98  		call	catch
2C92: CD8C98  		call	catch
2C95: CD8C98  		call	catch
2C98: CD8C98  		call	catch
2C9B: CD8C98  		call	catch
2C9E: CD8C98  		call	catch
2CA1: CD8C98  		call	catch
2CA4: CD8C98  		call	catch
2CA7: CD8C98  		call	catch
2CAA: CD8C98  		call	catch
2CAD: CD8C98  		call	catch
2CB0: CD8C98  		call	catch
2CB3: CD8C98  		call	catch
2CB6: CD8C98  		call	catch
2CB9: CD8C98  		call	catch
2CBC: CD8C98  		call	catch
2CBF: CD8C98  		call	catch
2CC2: CD8C98  		call	catch
2CC5: CD8C98  		call	catch
2CC8: CD8C98  		call	catch
2CCB: CD8C98  		call	catch
2CCE: CD8C98  		call	catch
2CD1: CD8C98  		call	catch
2CD4: CD8C98  		call	catch
2CD7: CD8C98  		call	catch
2CDA: CD8C98  		call	catch
2CDD: CD8C98  		call	catch
2CE0: CD8C98  		call	catch
2CE3: CD8C98  		call	catch
2CE6: CD8C98  		call	catch
2CE9: CD8C98  		call	catch
2CEC: CD8C98  		call	catch
2CEF: CD8C98  		call	catch
2CF2: CD8C98  		call	catch
2CF5: CD8C98  		call	catch
2CF8: CD8C98  		call	catch
2CFB: CD8C98  		call	catch
2CFE: CD8C98  		call	catch
2D01: CD8C98  		call	catch
2D04: CD8C98  		call	catch
2D07: CD8C98  		call	catch
2D0A: CD8C98  		call	catch
2D0D: CD8C98  		call	catch
2D10: CD8C98  		call	catch
2D13: CD8C98  		call	catch
2D16: CD8C98  		call	catch
2D19: CD8C98  		call	catch
2D1C: CD8C98  		call	catch
2D1F: CD8C98  		call	catch
2D22: CD8C98  		call	catch
2D25: CD8C98  		call	catch
2D28: CD8C98  		call	catch
2D2B: CD8C98  		call	catch
2D2E: CD8C98  		call	catch
2D31: CD8C98  		call	catch
2D34: CD8C98  		call	catch
2D37: CD8C98  		call	catch
2D3A: CD8C98  		call	catch
2D3D: CD8C98  		call	catch
2D40: CD8C98  		call	catch
2D43: CD8C98  		call	catch
2D46: CD8C98  		call	catch
2D49: CD8C98  		call	catch
2D4C: CD8C98  		call	catch
2D4F: CD8C98  		call	catch
2D52: CD8C98  		call	catch
2D55: CD8C98  		call	catch
2D58: CD8C98  		call	catch
2D5B: CD8C98  		call	catch
2D5E: CD8C98  		call	catch
2D61: CD8C98  		call	catch
2D64: CD8C98  		call	catch
2D67: CD8C98  		call	catch
2D6A: CD8C98  		call	catch
2D6D: CD8C98  		call	catch
2D70: CD8C98  		call	catch
2D73: CD8C98  		call	catch
2D76: CD8C98  		call	catch
2D79: CD8C98  		call	catch
2D7C: CD8C98  		call	catch
2D7F: CD8C98  		call	catch
2D82: CD8C98  		call	catch
2D85: CD8C98  		call	catch
2D88: CD8C98  		call	catch
2D8B: CD8C98  		call	catch
2D8E: CD8C98  		call	catch
2D91: CD8C98  		call	catch
2D94: CD8C98  		call	catch
2D97: CD8C98  		call	catch
2D9A: CD8C98  		call	catch
2D9D: CD8C98  		call	catch
2DA0: CD8C98  		call	catch
2DA3: CD8C98  		call	catch
2DA6: CD8C98  		call	catch
2DA9: CD8C98  		call	catch
2DAC: CD8C98  		call	catch
2DAF: CD8C98  		call	catch
2DB2: CD8C98  		call	catch
2DB5: CD8C98  		call	catch
2DB8: CD8C98  		call	catch
2DBB: CD8C98  		call	catch
2DBE: CD8C98  		call	catch
2DC1: CD8C98  		call	catch
2DC4: CD8C98  		call	catch
2DC7: CD8C98  		call	catch
2DCA: CD8C98  		call	catch
2DCD: CD8C98  		call	catch
2DD0: CD8C98  		call	catch
2DD3: CD8C98  		call	catch
2DD6: CD8C98  		call	catch
2DD9: CD8C98  		call	catch
2DDC: CD8C98  		call	catch
2DDF: CD8C98  		call	catch
2DE2: CD8C98  		call	catch
2DE5: CD8C98  		call	catch
2DE8: CD8C98  		call	catch
2DEB: CD8C98  		call	catch
2DEE: CD8C98  		call	catch
2DF1: CD8C98  		call	catch
2DF4: CD8C98  		call	catch
2DF7: CD8C98  		call	catch
2DFA: CD8C98  		call	catch
2DFD: CD8C98  		call	catch
2E00: CD8C98  		call	catch
2E03: CD8C98  		call	catch
2E06: CD8C98  		call	catch
2E09: CD8C98  		call	catch
2E0C: CD8C98  		call	catch
2E0F: CD8C98  		call	catch
2E12: CD8C98  		call	catch
2E15: CD8C98  		call	catch
2E18: CD8C98  		call	catch
2E1B: CD8C98  		call	catch
2E1E: CD8C98  		call	catch
2E21: CD8C98  		call	catch
2E24: CD8C98  		call	catch
2E27: CD8C98  		call	catch
2E2A: CD8C98  		call	catch
2E2D: CD8C98  		call	catch
2E30: CD8C98  		call	catch
2E33: CD8C98  		call	catch
2E36: CD8C98  		call	catch
2E39: CD8C98  		call	catch
2E3C: CD8C98  		call	catch
2E3F: CD8C98  		call	catch
2E42: CD8C98  		call	catch
2E45: CD8C98  		call	catch
2E48: CD8C98  		call	catch
2E4B: CD8C98  		call	catch
2E4E: CD8C98  		call	catch
2E51: CD8C98  		call	catch
2E54: CD8C98  		call	catch
2E57: CD8C98  		call	catch
2E5A: CD8C98  		call	catch
2E5D: CD8C98  		call	catch
2E60: CD8C98  		call	catch
2E63: CD8C98  		call	catch
2E66: CD8C98  		call	catch
2E69: CD8C98  		call	catch
2E6C: CD8C98  		call	catch
2E6F: CD8C98  		call	catch
2E72: CD8C98  		call	catch
2E75: CD8C98  		call	catch
2E78: CD8C98  		call	catch
2E7B: CD8C98  		call	catch
2E7E: CD8C98  		call	catch
2E81: CD8C98  		call	catch
2E84: CD8C98  		call	catch
2E87: CD8C98  		call	catch
2E8A: CD8C98  		call	catch
2E8D: CD8C98  		call	catch
2E90: CD8C98  		call	catch
2E93: CD8C98  		call	catch
2E96: CD8C98  		call	catch
2E99: CD8C98  		call	catch
2E9C: CD8C98  		call	catch
2E9F: CD8C98  		call	catch
2EA2: CD8C98  		call	catch
2EA5: CD8C98  		call	catch
2EA8: CD8C98  		call	catch
2EAB: CD8C98  		call	catch
2EAE: CD8C98  		call	catch
2EB1: CD8C98  		call	catch
2EB4: CD8C98  		call	catch
2EB7: CD8C98  		call	catch
2EBA: CD8C98  		call	catch
2EBD: CD8C98  		call	catch
2EC0: CD8C98  		call	catch
2EC3: CD8C98  		call	catch
2EC6: CD8C98  		call	catch
2EC9: CD8C98  		call	catch
2ECC: CD8C98  		call	catch
2ECF: CD8C98  		call	catch
2ED2: CD8C98  		call	catch
2ED5: CD8C98  		call	catch
2ED8: CD8C98  		call	catch
2EDB: CD8C98  		call	catch
2EDE: CD8C98  		call	catch
2EE1: CD8C98  		call	catch
2EE4: CD8C98  		call	catch
2EE7: CD8C98  		call	catch
2EEA: CD8C98  		call	catch
2EED: CD8C98  		call	catch
2EF0: CD8C98  		call	catch
2EF3: CD8C98  		call	catch
2EF6: CD8C98  		call	catch
2EF9: CD8C98  		call	catch
2EFC: CD8C98  		call	catch
2EFF: CD8C98  		call	catch
2F02: CD8C98  		call	catch
2F05: CD8C98  		call	catch
2F08: CD8C98  		call	catch
2F0B: CD8C98  		call	catch
2F0E: CD8C98  		call	catch
2F11: CD8C98  		call	catch
2F14: CD8C98  		call	catch
2F17: CD8C98  		call	catch
2F1A: CD8C98  		call	catch
2F1D: CD8C98  		call	catch
2F20: CD8C98  		call	catch
2F23: CD8C98  		call	catch
2F26: CD8C98  		call	catch
2F29: CD8C98  		call	catch
2F2C: CD8C98  		call	catch
2F2F: CD8C98  		call	catch
2F32: CD8C98  		call	catch
2F35: CD8C98  		call	catch
2F38: CD8C98  		call	catch
2F3B: CD8C98  		call	catch
2F3E: CD8C98  		call	catch
2F41: CD8C98  		call	catch
2F44: CD8C98  		call	catch
2F47: CD8C98  		call	catch
2F4A: CD8C98  		call	catch
2F4D: CD8C98  		call	catch
2F50: CD8C98  		call	catch
2F53: CD8C98  		call	catch
2F56: CD8C98  		call	catch
2F59: CD8C98  		call	catch
2F5C: CD8C98  		call	catch
2F5F: CD8C98  		call	catch
2F62: CD8C98  		call	catch
2F65: CD8C98  		call	catch
2F68: CD8C98  		call	catch
2F6B: CD8C98  		call	catch
2F6E: CD8C98  		call	catch
2F71: CD8C98  		call	catch
2F74: CD8C98  		call	catch
2F77: CD8C98  		call	catch
2F7A: CD8C98  		call	catch
2F7D: CD8C98  		call	catch
2F80: CD8C98  		call	catch
2F83: CD8C98  		call	catch
2F86: CD8C98  		call	catch
2F89: CD8C98  		call	catch
2F8C: CD8C98  		call	catch
2F8F: CD8C98  		call	catch
2F92: CD8C98  		call	catch
2F95: CD8C98  		call	catch
2F98: CD8C98  		call	catch
2F9B: CD8C98  		call	catch
2F9E: CD8C98  		call	catch
2FA1: CD8C98  		call	catch
2FA4: CD8C98  		call	catch
2FA7: CD8C98  		call	catch
2FAA: CD8C98  		call	catch
2FAD: CD8C98  		call	catch
2FB0: CD8C98  		call	catch
2FB3: CD8C98  		call	catch
2FB6: CD8C98  		call	catch
2FB9: CD8C98  		call	catch
2FBC: CD8C98  		call	catch
2FBF: CD8C98  		call	catch
2FC2: CD8C98  		call	catch
2FC5: CD8C98  		call	catch
2FC8: CD8C98  		call	catch
2FCB: CD8C98  		call	catch
2FCE: CD8C98  		call	catch
2FD1: CD8C98  		call	catch
2FD4: CD8C98  		call	catch
2FD7: CD8C98  		call	catch
2FDA: CD8C98  		call	catch
2FDD: CD8C98  		call	catch
2FE0: CD8C98  		call	catch
2FE3: CD8C98  		call	catch
2FE6: CD8C98  		call	catch
2FE9: CD8C98  		call	catch
2FEC: CD8C98  		call	catch
2FEF: CD8C98  		call	catch
2FF2: CD8C98  		call	catch
2FF5: CD8C98  		call	catch
2FF8: CD8C98  		call	catch
2FFB: CD8C98  		call	catch
2FFE: CD8C98  		call	catch
3001: CD8C98  		call	catch
3004: CD8C98  		call	catch
3007: CD8C98  		call	catch
300A: CD8C98  		call	catch
300D: CD8C98  		call	catch
3010: CD8C98  		call	catch
3013: CD8C98  		call	catch
3016: CD8C98  		call	catch
3019: CD8C98  		call	catch
301C: CD8C98  		call	catch
301F: CD8C98  		call	catch
3022: CD8C98  		call	catch
3025: CD8C98  		call	catch
3028: CD8C98  		call	catch
302B: CD8C98  		call	catch
302E: CD8C98  		call	catch
3031: CD8C98  		call	catch
3034: CD8C98  		call	catch
3037: CD8C98  		call	catch
303A: CD8C98  		call	catch
303D: CD8C98  		call	catch
3040: CD8C98  		call	catch
3043: CD8C98  		call	catch
3046: CD8C98  		call	catch
3049: CD8C98  		call	catch
304C: CD8C98  		call	catch
304F: CD8C98  		call	catch
3052: CD8C98  		call	catch
3055: CD8C98  		call	catch
3058: CD8C98  		call	catch
305B: CD8C98  		call	catch
305E: CD8C98  		call	catch
3061: CD8C98  		call	catch
3064: CD8C98  		call	catch
3067: CD8C98  		call	catch
306A: CD8C98  		call	catch
306D: CD8C98  		call	catch
3070: CD8C98  		call	catch
3073: CD8C98  		call	catch
3076: CD8C98  		call	catch
3079: CD8C98  		call	catch
307C: CD8C98  		call	catch
307F: CD8C98  		call	catch
3082: CD8C98  		call	catch
3085: CD8C98  		call	catch
3088: CD8C98  		call	catch
308B: CD8C98  		call	catch
308E: CD8C98  		call	catch
3091: CD8C98  		call	catch
3094: CD8C98  		call	catch
3097: CD8C98  		call	catch
309A: CD8C98  		call	catch
309D: CD8C98  		call	catch
30A0: CD8C98  		call	catch
30A3: CD8C98  		call	catch
30A6: CD8C98  		call	catch
30A9: CD8C98  		call	catch
30AC: CD8C98  		call	catch
30AF: CD8C98  		call	catch
30B2: CD8C98  		call	catch
30B5: CD8C98  		call	catch
30B8: CD8C98  		call	catch
30BB: CD8C98  		call	catch
30BE: CD8C98  		call	catch
30C1: CD8C98  		call	catch
30C4: CD8C98  		call	catch
30C7: CD8C98  		call	catch
30CA: CD8C98  		call	catch
30CD: CD8C98  		call	catch
30D0: CD8C98  		call	catch
30D3: CD8C98  		call	catch
30D6: CD8C98  		call	catch
30D9: CD8C98  		call	catch
30DC: CD8C98  		call	catch
30DF: CD8C98  		call	catch
30E2: CD8C98  		call	catch
30E5: CD8C98  		call	catch
30E8: CD8C98  		call	catch
30EB: CD8C98  		call	catch
30EE: CD8C98  		call	catch
30F1: CD8C98  		call	catch
30F4: CD8C98  		call	catch
30F7: CD8C98  		call	catch
30FA: CD8C98  		call	catch
30FD: CD8C98  		call	catch
3100: CD8C98  		call	catch
3103: CD8C98  		call	catch
3106: CD8C98  		call	catch
3109: CD8C98  		call	catch
310C: CD8C98  		call	catch
310F: CD8C98  		call	catch
3112: CD8C98  		call	catch
3115: CD8C98  		call	catch
3118: CD8C98  		call	catch
311B: CD8C98  		call	catch
311E: CD8C98  		call	catch
3121: CD8C98  		call	catch
3124: CD8C98  		call	catch
3127: CD8C98  		call	catch
312A: CD8C98  		call	catch
312D: CD8C98  		call	catch
3130: CD8C98  		call	catch
3133: CD8C98  		call	catch
3136: CD8C98  		call	catch
3139: CD8C98  		call	catch
313C: CD8C98  		call	catch
313F: CD8C98  		call	catch
3142: CD8C98  		call	catch
3145: CD8C98  		call	catch
3148: CD8C98  		call	catch
314B: CD8C98  		call	catch
314E: CD8C98  		call	catch
3151: CD8C98  		call	catch
3154: CD8C98  		call	catch
3157: CD8C98  		call	catch
315A: CD8C98  		call	catch
315D: CD8C98  		call	catch
3160: CD8C98  		call	catch
3163: CD8C98  		call	catch
3166: CD8C98  		call	catch
3169: CD8C98  		call	catch
316C: CD8C98  		call	catch
316F: CD8C98  		call	catch
3172: CD8C98  		call	catch
3175: CD8C98  		call	catch
3178: CD8C98  		call	catch
317B: CD8C98  		call	catch
317E: CD8C98  		call	catch
3181: CD8C98  		call	catch
3184: CD8C98  		call	catch
3187: CD8C98  		call	catch
318A: CD8C98  		call	catch
318D: CD8C98  		call	catch
3190: CD8C98  		call	catch
3193: CD8C98  		call	catch
3196: CD8C98  		call	catch
3199: CD8C98  		call	catch
319C: CD8C98  		call	catch
319F: CD8C98  		call	catch
31A2: CD8C98  		call	catch
31A5: CD8C98  		call	catch
31A8: CD8C98  		call	catch
31AB: CD8C98  		call	catch
31AE: CD8C98  		call	catch
31B1: CD8C98  		call	catch
31B4: CD8C98  		call	catch
31B7: CD8C98  		call	catch
31BA: CD8C98  		call	catch
31BD: CD8C98  		call	catch
31C0: CD8C98  		call	catch
31C3: CD8C98  		call	catch
31C6: CD8C98  		call	catch
31C9: CD8C98  		call	catch
31CC: CD8C98  		call	catch
31CF: CD8C98  		call	catch
31D2: CD8C98  		call	catch
31D5: CD8C98  		call	catch
31D8: CD8C98  		call	catch
31DB: CD8C98  		call	catch
31DE: CD8C98  		call	catch
31E1: CD8C98  		call	catch
31E4: CD8C98  		call	catch
31E7: CD8C98  		call	catch
31EA: CD8C98  		call	catch
31ED: CD8C98  		call	catch
31F0: CD8C98  		call	catch
31F3: CD8C98  		call	catch
31F6: CD8C98  		call	catch
31F9: CD8C98  		call	catch
31FC: CD8C98  		call	catch
31FF: CD8C98  		call	catch
3202: CD8C98  		call	catch
3205: CD8C98  		call	catch
3208: CD8C98  		call	catch
320B: CD8C98  		call	catch
320E: CD8C98  		call	catch
3211: CD8C98  		call	catch
3214: CD8C98  		call	catch
3217: CD8C98  		call	catch
321A: CD8C98  		call	catch
321D: CD8C98  		call	catch
3220: CD8C98  		call	catch
3223: CD8C98  		call	catch
3226: CD8C98  		call	catch
3229: CD8C98  		call	catch
322C: CD8C98  		call	catch
322F: CD8C98  		call	catch
3232: CD8C98  		call	catch
3235: CD8C98  		call	catch
3238: CD8C98  		call	catch
323B: CD8C98  		call	catch
323E: CD8C98  		call	catch
3241: CD8C98  		call	catch
3244: CD8C98  		call	catch
3247: CD8C98  		call	catch
324A: CD8C98  		call	catch
324D: CD8C98  		call	catch
3250: CD8C98  		call	catch
3253: CD8C98  		call	catch
3256: CD8C98  		call	catch
3259: CD8C98  		call	catch
325C: CD8C98  		call	catch
325F: CD8C98  		call	catch
3262: CD8C98  		call	catch
3265: CD8C98  		call	catch
3268: CD8C98  		call	catch
326B: CD8C98  		call	catch
326E: CD8C98  		call	catch
3271: CD8C98  		call	catch
3274: CD8C98  		call	catch
3277: CD8C98  		call	catch
327A: CD8C98  		call	catch
327D: CD8C98  		call	catch
3280: CD8C98  		call	catch
3283: CD8C98  		call	catch
3286: CD8C98  		call	catch
3289: CD8C98  		call	catch
328C: CD8C98  		call	catch
328F: CD8C98  		call	catch
3292: CD8C98  		call	catch
3295: CD8C98  		call	catch
3298: CD8C98  		call	catch
329B: CD8C98  		call	catch
329E: CD8C98  		call	catch
32A1: CD8C98  		call	catch
32A4: CD8C98  		call	catch
32A7: CD8C98  		call	catch
32AA: CD8C98  		call	catch
32AD: CD8C98  		call	catch
32B0: CD8C98  		call	catch
32B3: CD8C98  		call	catch
32B6: CD8C98  		call	catch
32B9: CD8C98  		call	catch
32BC: CD8C98  		call	catch
32BF: CD8C98  		call	catch
32C2: CD8C98  		call	catch
32C5: CD8C98  		call	catch
32C8: CD8C98  		call	catch
32CB: CD8C98  		call	catch
32CE: CD8C98  		call	catch
32D1: CD8C98  		call	catch
32D4: CD8C98  		call	catch
32D7: CD8C98  		call	catch
32DA: CD8C98  		call	catch
32DD: CD8C98  		call	catch
32E0: CD8C98  		call	catch
32E3: CD8C98  		call	catch
32E6: CD8C98  		call	catch
32E9: CD8C98  		call	catch
32EC: CD8C98  		call	catch
32EF: CD8C98  		call	catch
32F2: CD8C98  		call	catch
32F5: CD8C98  		call	catch
32F8: CD8C98  		call	catch
32FB: CD8C98  		call	catch
32FE: CD8C98  		call	catch
3301: CD8C98  		call	catch
3304: CD8C98  		call	catch
3307: CD8C98  		call	catch
330A: CD8C98  		call	catch
330D: CD8C98  		call	catch
3310: CD8C98  		call	catch
3313: CD8C98  		call	catch
3316: CD8C98  		call	catch
3319: CD8C98  		call	catch
331C: CD8C98  		call	catch
331F: CD8C98  		call	catch
3322: CD8C98  		call	catch
3325: CD8C98  		call	catch
3328: CD8C98  		call	catch
332B: CD8C98  		call	catch
332E: CD8C98  		call	catch
3331: CD8C98  		call	catch
3334: CD8C98  		call	catch
3337: CD8C98  		call	catch
333A: CD8C98  		call	catch
333D: CD8C98  		call	catch
3340: CD8C98  		call	catch
3343: CD8C98  		call	catch
3346: CD8C98  		call	catch
3349: CD8C98  		call	catch
334C: CD8C98  		call	catch
334F: CD8C98  		call	catch
3352: CD8C98  		call	catch
3355: CD8C98  		call	catch
3358: CD8C98  		call	catch
335B: CD8C98  		call	catch
335E: CD8C98  		call	catch
3361: CD8C98  		call	catch
3364: CD8C98  		call	catch
3367: CD8C98  		call	catch
336A: CD8C98  		call	catch
336D: CD8C98  		call	catch
3370: CD8C98  		call	catch
3373: CD8C98  		call	catch
3376: CD8C98  		call	catch
3379: CD8C98  		call	catch
337C: CD8C98  		call	catch
337F: CD8C98  		call	catch
3382: CD8C98  		call	catch
3385: CD8C98  		call	catch
3388: CD8C98  		call	catch
338B: CD8C98  		call	catch
338E: CD8C98  		call	catch
3391: CD8C98  		call	catch
3394: CD8C98  		call	catch
3397: CD8C98  		call	catch
339A: CD8C98  		call	catch
339D: CD8C98  		call	catch
33A0: CD8C98  		call	catch
33A3: CD8C98  		call	catch
33A6: CD8C98  		call	catch
33A9: CD8C98  		call	catch
33AC: CD8C98  		call	catch
33AF: CD8C98  		call	catch
33B2: CD8C98  		call	catch
33B5: CD8C98  		call	catch
33B8: CD8C98  		call	catch
33BB: CD8C98  		call	catch
33BE: CD8C98  		call	catch
33C1: CD8C98  		call	catch
33C4: CD8C98  		call	catch
33C7: CD8C98  		call	catch
33CA: CD8C98  		call	catch
33CD: CD8C98  		call	catch
33D0: CD8C98  		call	catch
33D3: CD8C98  		call	catch
33D6: CD8C98  		call	catch
33D9: CD8C98  		call	catch
33DC: CD8C98  		call	catch
33DF: CD8C98  		call	catch
33E2: CD8C98  		call	catch
33E5: CD8C98  		call	catch
33E8: CD8C98  		call	catch
33EB: CD8C98  		call	catch
33EE: CD8C98  		call	catch
33F1: CD8C98  		call	catch
33F4: CD8C98  		call	catch
33F7: CD8C98  		call	catch
33FA: CD8C98  		call	catch
33FD: CD8C98  		call	catch
3400: CD8C98  		call	catch
3403: CD8C98  		call	catch
3406: CD8C98  		call	catch
3409: CD8C98  		call	catch
340C: CD8C98  		call	catch
340F: CD8C98  		call	catch
3412: CD8C98  		call	catch
3415: CD8C98  		call	catch
3418: CD8C98  		call	catch
341B: CD8C98  		call	catch
341E: CD8C98  		call	catch
3421: CD8C98  		call	catch
3424: CD8C98  		call	catch
3427: CD8C98  		call	catch
342A: CD8C98  		call	catch
342D: CD8C98  		call	catch
3430: CD8C98  		call	catch
3433: CD8C98  		call	catch
3436: CD8C98  		call	catch
3439: CD8C98  		call	catch
343C: CD8C98  		call	catch
343F: CD8C98  		call	catch
3442: CD8C98  		call	catch
3445: CD8C98  		call	catch
3448: CD8C98  		call	catch
344B: CD8C98  		call	catch
344E: CD8C98  		call	catch
3451: CD8C98  		call	catch
3454: CD8C98  		call	catch
3457: CD8C98  		call	catch
345A: CD8C98  		call	catch
345D: CD8C98  		call	catch
3460: CD8C98  		call	catch
3463: CD8C98  		call	catch
3466: CD8C98  		call	catch
3469: CD8C98  		call	catch
346C: CD8C98  		call	catch
346F: CD8C98  		call	catch
3472: CD8C98  		call	catch
3475: CD8C98  		call	catch
3478: CD8C98  		call	catch
347B: CD8C98  		call	catch
347E: CD8C98  		call	catch
3481: CD8C98  		call	catch
3484: CD8C98  		call	catch
3487: CD8C98  		call	catch
348A: CD8C98  		call	catch
348D: CD8C98  		call	catch
3490: CD8C98  		call	catch
3493: CD8C98  		call	catch
3496: CD8C98  		call	catch
3499: CD8C98  		call	catch
349C: CD8C98  		call	catch
349F: CD8C98  		call	catch
34A2: CD8C98  		call	catch
34A5: CD8C98  		call	catch
34A8: CD8C98  		call	catch
34AB: CD8C98  		call	catch
34AE: CD8C98  		call	catch
34B1: CD8C98  		call	catch
34B4: CD8C98  		call	catch
34B7: CD8C98  		call	catch
34BA: CD8C98  		call	catch
34BD: CD8C98  		call	catch
34C0: CD8C98  		call	catch
34C3: CD8C98  		call	catch
34C6: CD8C98  		call	catch
34C9: CD8C98  		call	catch
34CC: CD8C98  		call	catch
34CF: CD8C98  		call	catch
34D2: CD8C98  		call	catch
34D5: CD8C98  		call	catch
34D8: CD8C98  		call	catch
34DB: CD8C98  		call	catch
34DE: CD8C98  		call	catch
34E1: CD8C98  		call	catch
34E4: CD8C98  		call	catch
34E7: CD8C98  		call	catch
34EA: CD8C98  		call	catch
34ED: CD8C98  		call	catch
34F0: CD8C98  		call	catch
34F3: CD8C98  		call	catch
34F6: CD8C98  		call	catch
34F9: CD8C98  		call	catch
34FC: CD8C98  		call	catch
34FF: CD8C98  		call	catch
3502: CD8C98  		call	catch
3505: CD8C98  		call	catch
3508: CD8C98  		call	catch
350B: CD8C98  		call	catch
350E: CD8C98  		call	catch
3511: CD8C98  		call	catch
3514: CD8C98  		call	catch
3517: CD8C98  		call	catch
351A: CD8C98  		call	catch
351D: CD8C98  		call	catch
3520: CD8C98  		call	catch
3523: CD8C98  		call	catch
3526: CD8C98  		call	catch
3529: CD8C98  		call	catch
352C: CD8C98  		call	catch
352F: CD8C98  		call	catch
3532: CD8C98  		call	catch
3535: CD8C98  		call	catch
3538: CD8C98  		call	catch
353B: CD8C98  		call	catch
353E: CD8C98  		call	catch
3541: CD8C98  		call	catch
3544: CD8C98  		call	catch
3547: CD8C98  		call	catch
354A: CD8C98  		call	catch
354D: CD8C98  		call	catch
3550: CD8C98  		call	catch
3553: CD8C98  		call	catch
3556: CD8C98  		call	catch
3559: CD8C98  		call	catch
355C: CD8C98  		call	catch
355F: CD8C98  		call	catch
3562: CD8C98  		call	catch
3565: CD8C98  		call	catch
3568: CD8C98  		call	catch
356B: CD8C98  		call	catch
356E: CD8C98  		call	catch
3571: CD8C98  		call	catch
3574: CD8C98  		call	catch
3577: CD8C98  		call	catch
357A: CD8C98  		call	catch
357D: CD8C98  		call	catch
3580: CD8C98  		call	catch
3583: CD8C98  		call	catch
3586: CD8C98  		call	catch
3589: CD8C98  		call	catch
358C: CD8C98  		call	catch
358F: CD8C98  		call	catch
3592: CD8C98  		call	catch
3595: CD8C98  		call	catch
3598: CD8C98  		call	catch
359B: CD8C98  		call	catch
359E: CD8C98  		call	catch
35A1: CD8C98  		call	catch
35A4: CD8C98  		call	catch
35A7: CD8C98  		call	catch
35AA: CD8C98  		call	catch
35AD: CD8C98  		call	catch
35B0: CD8C98  		call	catch
35B3: CD8C98  		call	catch
35B6: CD8C98  		call	catch
35B9: CD8C98  		call	catch
35BC: CD8C98  		call	catch
35BF: CD8C98  		call	catch
35C2: CD8C98  		call	catch
35C5: CD8C98  		call	catch
35C8: CD8C98  		call	catch
35CB: CD8C98  		call	catch
35CE: CD8C98  		call	catch
35D1: CD8C98  		call	catch
35D4: CD8C98  		call	catch
35D7: CD8C98  		call	catch
35DA: CD8C98  		call	catch
35DD: CD8C98  		call	catch
35E0: CD8C98  		call	catch
35E3: CD8C98  		call	catch
35E6: CD8C98  		call	catch
35E9: CD8C98  		call	catch
35EC: CD8C98  		call	catch
35EF: CD8C98  		call	catch
35F2: CD8C98  		call	catch
35F5: CD8C98  		call	catch
35F8: CD8C98  		call	catch
35FB: CD8C98  		call	catch
35FE: CD8C98  		call	catch
3601: CD8C98  		call	catch
3604: CD8C98  		call	catch
3607: CD8C98  		call	catch
360A: CD8C98  		call	catch
360D: CD8C98  		call	catch
3610: CD8C98  		call	catch
3613: CD8C98  		call	catch
3616: CD8C98  		call	catch
3619: CD8C98  		call	catch
361C: CD8C98  		call	catch
361F: CD8C98  		call	catch
3622: CD8C98  		call	catch
3625: CD8C98  		call	catch
3628: CD8C98  		call	catch
362B: CD8C98  		call	catch
362E: CD8C98  		call	catch
3631: CD8C98  		call	catch
3634: CD8C98  		call	catch
3637: CD8C98  		call	catch
363A: CD8C98  		call	catch
363D: CD8C98  		call	catch
3640: CD8C98  		call	catch
3643: CD8C98  		call	catch
3646: CD8C98  		call	catch
3649: CD8C98  		call	catch
364C: CD8C98  		call	catch
364F: CD8C98  		call	catch
3652: CD8C98  		call	catch
3655: CD8C98  		call	catch
3658: CD8C98  		call	catch
365B: CD8C98  		call	catch
365E: CD8C98  		call	catch
3661: CD8C98  		call	catch
3664: CD8C98  		call	catch
3667: CD8C98  		call	catch
366A: CD8C98  		call	catch
366D: CD8C98  		call	catch
3670: CD8C98  		call	catch
3673: CD8C98  		call	catch
3676: CD8C98  		call	catch
3679: CD8C98  		call	catch
367C: CD8C98  		call	catch
367F: CD8C98  		call	catch
3682: CD8C98  		call	catch
3685: CD8C98  		call	catch
3688: CD8C98  		call	catch
368B: CD8C98  		call	catch
368E: CD8C98  		call	catch
3691: CD8C98  		call	catch
3694: CD8C98  		call	catch
3697: CD8C98  		call	catch
369A: CD8C98  		call	catch
369D: CD8C98  		call	catch
36A0: CD8C98  		call	catch
36A3: CD8C98  		call	catch
36A6: CD8C98  		call	catch
36A9: CD8C98  		call	catch
36AC: CD8C98  		call	catch
36AF: CD8C98  		call	catch
36B2: CD8C98  		call	catch
36B5: CD8C98  		call	catch
36B8: CD8C98  		call	catch
36BB: CD8C98  		call	catch
36BE: CD8C98  		call	catch
36C1: CD8C98  		call	catch
36C4: CD8C98  		call	catch
36C7: CD8C98  		call	catch
36CA: CD8C98  		call	catch
36CD: CD8C98  		call	catch
36D0: CD8C98  		call	catch
36D3: CD8C98  		call	catch
36D6: CD8C98  		call	catch
36D9: CD8C98  		call	catch
36DC: CD8C98  		call	catch
36DF: CD8C98  		call	catch
36E2: CD8C98  		call	catch
36E5: CD8C98  		call	catch
36E8: CD8C98  		call	catch
36EB: CD8C98  		call	catch
36EE: CD8C98  		call	catch
36F1: CD8C98  		call	catch
36F4: CD8C98  		call	catch
36F7: CD8C98  		call	catch
36FA: CD8C98  		call	catch
36FD: CD8C98  		call	catch
3700: CD8C98  		call	catch
3703: CD8C98  		call	catch
3706: CD8C98  		call	catch
3709: CD8C98  		call	catch
370C: CD8C98  		call	catch
370F: CD8C98  		call	catch
3712: CD8C98  		call	catch
3715: CD8C98  		call	catch
3718: CD8C98  		call	catch
371B: CD8C98  		call	catch
371E: CD8C98  		call	catch
3721: CD8C98  		call	catch
3724: CD8C98  		call	catch
3727: CD8C98  		call	catch
372A: CD8C98  		call	catch
372D: CD8C98  		call	catch
3730: CD8C98  		call	catch
3733: CD8C98  		call	catch
3736: CD8C98  		call	catch
3739: CD8C98  		call	catch
373C: CD8C98  		call	catch
373F: CD8C98  		call	catch
3742: CD8C98  		call	catch
3745: CD8C98  		call	catch
3748: CD8C98  		call	catch
374B: CD8C98  		call	catch
374E: CD8C98  		call	catch
3751: CD8C98  		call	catch
3754: CD8C98  		call	catch
3757: CD8C98  		call	catch
375A: CD8C98  		call	catch
375D: CD8C98  		call	catch
3760: CD8C98  		call	catch
3763: CD8C98  		call	catch
3766: CD8C98  		call	catch
3769: CD8C98  		call	catch
376C: CD8C98  		call	catch
376F: CD8C98  		call	catch
3772: CD8C98  		call	catch
3775: CD8C98  		call	catch
3778: CD8C98  		call	catch
377B: CD8C98  		call	catch
377E: CD8C98  		call	catch
3781: CD8C98  		call	catch
3784: CD8C98  		call	catch
3787: CD8C98  		call	catch
378A: CD8C98  		call	catch
378D: CD8C98  		call	catch
3790: CD8C98  		call	catch
3793: CD8C98  		call	catch
3796: CD8C98  		call	catch
3799: CD8C98  		call	catch
379C: CD8C98  		call	catch
379F: CD8C98  		call	catch
37A2: CD8C98  		call	catch
37A5: CD8C98  		call	catch
37A8: CD8C98  		call	catch
37AB: CD8C98  		call	catch
37AE: CD8C98  		call	catch
37B1: CD8C98  		call	catch
37B4: CD8C98  		call	catch
37B7: CD8C98  		call	catch
37BA: CD8C98  		call	catch
37BD: CD8C98  		call	catch
37C0: CD8C98  		call	catch
37C3: CD8C98  		call	catch
37C6: CD8C98  		call	catch
37C9: CD8C98  		call	catch
37CC: CD8C98  		call	catch
37CF: CD8C98  		call	catch
37D2: CD8C98  		call	catch
37D5: CD8C98  		call	catch
37D8: CD8C98  		call	catch
37DB: CD8C98  		call	catch
37DE: CD8C98  		call	catch
37E1: CD8C98  		call	catch
37E4: CD8C98  		call	catch
37E7: CD8C98  		call	catch
37EA: CD8C98  		call	catch
37ED: CD8C98  		call	catch
37F0: CD8C98  		call	catch
37F3: CD8C98  		call	catch
37F6: CD8C98  		call	catch
37F9: CD8C98  		call	catch
37FC: CD8C98  		call	catch
37FF: CD8C98  		call	catch
3802: CD8C98  		call	catch
3805: CD8C98  		call	catch
3808: CD8C98  		call	catch
380B: CD8C98  		call	catch
380E: CD8C98  		call	catch
3811: CD8C98  		call	catch
3814: CD8C98  		call	catch
3817: CD8C98  		call	catch
381A: CD8C98  		call	catch
381D: CD8C98  		call	catch
3820: CD8C98  		call	catch
3823: CD8C98  		call	catch
3826: CD8C98  		call	catch
3829: CD8C98  		call	catch
382C: CD8C98  		call	catch
382F: CD8C98  		call	catch
3832: CD8C98  		call	catch
3835: CD8C98  		call	catch
3838: CD8C98  		call	catch
383B: CD8C98  		call	catch
383E: CD8C98  		call	catch
3841: CD8C98  		call	catch
3844: CD8C98  		call	catch
3847: CD8C98  		call	catch
384A: CD8C98  		call	catch
384D: CD8C98  		call	catch
3850: CD8C98  		call	catch
3853: CD8C98  		call	catch
3856: CD8C98  		call	catch
3859: CD8C98  		call	catch
385C: CD8C98  		call	catch
385F: CD8C98  		call	catch
3862: CD8C98  		call	catch
3865: CD8C98  		call	catch
3868: CD8C98  		call	catch
386B: CD8C98  		call	catch
386E: CD8C98  		call	catch
3871: CD8C98  		call	catch
3874: CD8C98  		call	catch
3877: CD8C98  		call	catch
387A: CD8C98  		call	catch
387D: CD8C98  		call	catch
3880: CD8C98  		call	catch
3883: CD8C98  		call	catch
3886: CD8C98  		call	catch
3889: CD8C98  		call	catch
388C: CD8C98  		call	catch
388F: CD8C98  		call	catch
3892: CD8C98  		call	catch
3895: CD8C98  		call	catch
3898: CD8C98  		call	catch
389B: CD8C98  		call	catch
389E: CD8C98  		call	catch
38A1: CD8C98  		call	catch
38A4: CD8C98  		call	catch
38A7: CD8C98  		call	catch
38AA: CD8C98  		call	catch
38AD: CD8C98  		call	catch
38B0: CD8C98  		call	catch
38B3: CD8C98  		call	catch
38B6: CD8C98  		call	catch
38B9: CD8C98  		call	catch
38BC: CD8C98  		call	catch
38BF: CD8C98  		call	catch
38C2: CD8C98  		call	catch
38C5: CD8C98  		call	catch
38C8: CD8C98  		call	catch
38CB: CD8C98  		call	catch
38CE: CD8C98  		call	catch
38D1: CD8C98  		call	catch
38D4: CD8C98  		call	catch
38D7: CD8C98  		call	catch
38DA: CD8C98  		call	catch
38DD: CD8C98  		call	catch
38E0: CD8C98  		call	catch
38E3: CD8C98  		call	catch
38E6: CD8C98  		call	catch
38E9: CD8C98  		call	catch
38EC: CD8C98  		call	catch
38EF: CD8C98  		call	catch
38F2: CD8C98  		call	catch
38F5: CD8C98  		call	catch
38F8: CD8C98  		call	catch
38FB: CD8C98  		call	catch
38FE: CD8C98  		call	catch
3901: CD8C98  		call	catch
3904: CD8C98  		call	catch
3907: CD8C98  		call	catch
390A: CD8C98  		call	catch
390D: CD8C98  		call	catch
3910: CD8C98  		call	catch
3913: CD8C98  		call	catch
3916: CD8C98  		call	catch
3919: CD8C98  		call	catch
391C: CD8C98  		call	catch
391F: CD8C98  		call	catch
3922: CD8C98  		call	catch
3925: CD8C98  		call	catch
3928: CD8C98  		call	catch
392B: CD8C98  		call	catch
392E: CD8C98  		call	catch
3931: CD8C98  		call	catch
3934: CD8C98  		call	catch
3937: CD8C98  		call	catch
393A: CD8C98  		call	catch
393D: CD8C98  		call	catch
3940: CD8C98  		call	catch
3943: CD8C98  		call	catch
3946: CD8C98  		call	catch
3949: CD8C98  		call	catch
394C: CD8C98  		call	catch
394F: CD8C98  		call	catch
3952: CD8C98  		call	catch
3955: CD8C98  		call	catch
3958: CD8C98  		call	catch
395B: CD8C98  		call	catch
395E: CD8C98  		call	catch
3961: CD8C98  		call	catch
3964: CD8C98  		call	catch
3967: CD8C98  		call	catch
396A: CD8C98  		call	catch
396D: CD8C98  		call	catch
3970: CD8C98  		call	catch
3973: CD8C98  		call	catch
3976: CD8C98  		call	catch
3979: CD8C98  		call	catch
397C: CD8C98  		call	catch
397F: CD8C98  		call	catch
3982: CD8C98  		call	catch
3985: CD8C98  		call	catch
3988: CD8C98  		call	catch
398B: CD8C98  		call	catch
398E: CD8C98  		call	catch
3991: CD8C98  		call	catch
3994: CD8C98  		call	catch
3997: CD8C98  		call	catch
399A: CD8C98  			call	catch
399D: CD8C98  		call	catch
39A0: CD8C98  		call	catch
39A3: CD8C98  		call	catch
39A6: CD8C98  		call	catch
39A9: CD8C98  		call	catch
39AC: CD8C98  		call	catch
39AF: CD8C98  		call	catch
39B2: CD8C98  		call	catch
39B5: CD8C98  		call	catch
39B8: CD8C98  		call	catch
39BB: CD8C98  		call	catch
39BE: CD8C98  		call	catch
39C1: CD8C98  		call	catch
39C4: CD8C98  		call	catch
39C7: CD8C98  		call	catch
39CA: CD8C98  		call	catch
39CD: CD8C98  		call	catch
39D0: CD8C98  		call	catch
39D3: CD8C98  		call	catch
39D6: CD8C98  		call	catch
39D9: CD8C98  		call	catch
39DC: CD8C98  		call	catch
39DF: CD8C98  		call	catch
39E2: CD8C98  		call	catch
39E5: CD8C98  		call	catch
39E8: CD8C98  		call	catch
39EB: CD8C98  		call	catch
39EE: CD8C98  		call	catch
39F1: CD8C98  		call	catch
39F4: CD8C98  		call	catch
39F7: CD8C98  		call	catch
39FA: CD8C98  		call	catch
39FD: CD8C98  		call	catch
3A00: CD8C98  		call	catch
3A03: CD8C98  		call	catch
3A06: CD8C98  		call	catch
3A09: CD8C98  		call	catch
3A0C: CD8C98  		call	catch
3A0F: CD8C98  		call	catch
3A12: CD8C98  		call	catch
3A15: CD8C98  		call	catch
3A18: CD8C98  		call	catch
3A1B: CD8C98  		call	catch
3A1E: CD8C98  		call	catch
3A21: CD8C98  		call	catch
3A24: CD8C98  		call	catch
3A27: CD8C98  		call	catch
3A2A: CD8C98  		call	catch
3A2D: CD8C98  		call	catch
3A30: CD8C98  		call	catch
3A33: CD8C98  		call	catch
3A36: CD8C98  		call	catch
3A39: CD8C98  		call	catch
3A3C: CD8C98  		call	catch
3A3F: CD8C98  		call	catch
3A42: CD8C98  		call	catch
3A45: CD8C98  		call	catch
3A48: CD8C98  		call	catch
3A4B: CD8C98  		call	catch
3A4E: CD8C98  		call	catch
3A51: CD8C98  		call	catch
3A54: CD8C98  		call	catch
3A57: CD8C98  		call	catch
3A5A: CD8C98  		call	catch
3A5D: CD8C98  		call	catch
3A60: CD8C98  		call	catch
3A63: CD8C98  		call	catch
3A66: CD8C98  		call	catch
3A69: CD8C98  		call	catch
3A6C: CD8C98  		call	catch
3A6F: CD8C98  		call	catch
3A72: CD8C98  		call	catch
3A75: CD8C98  		call	catch
3A78: CD8C98  		call	catch
3A7B: CD8C98  		call	catch
3A7E: CD8C98  		call	catch
3A81: CD8C98  		call	catch
3A84: CD8C98  		call	catch
3A87: CD8C98  		call	catch
3A8A: CD8C98  		call	catch
3A8D: CD8C98  		call	catch
3A90: CD8C98  		call	catch
3A93: CD8C98  		call	catch
3A96: CD8C98  		call	catch
3A99: CD8C98  		call	catch
3A9C: CD8C98  		call	catch
3A9F: CD8C98  		call	catch
3AA2: CD8C98  		call	catch
3AA5: CD8C98  		call	catch
3AA8: CD8C98  		call	catch
3AAB: CD8C98  		call	catch
3AAE: CD8C98  		call	catch
3AB1: CD8C98  		call	catch
3AB4: CD8C98  		call	catch
3AB7: CD8C98  		call	catch
3ABA: CD8C98  		call	catch
3ABD: CD8C98  		call	catch
3AC0: CD8C98  		call	catch
3AC3: CD8C98  		call	catch
3AC6: CD8C98  		call	catch
3AC9: CD8C98  		call	catch
3ACC: CD8C98  		call	catch
3ACF: CD8C98  		call	catch
3AD2: CD8C98  		call	catch
3AD5: CD8C98  		call	catch
3AD8: CD8C98  		call	catch
3ADB: CD8C98  		call	catch
3ADE: CD8C98  		call	catch
3AE1: CD8C98  		call	catch
3AE4: CD8C98  		call	catch
3AE7: CD8C98  		call	catch
3AEA: CD8C98  		call	catch
3AED: CD8C98  		call	catch
3AF0: CD8C98  		call	catch
3AF3: CD8C98  		call	catch
3AF6: CD8C98  		call	catch
3AF9: CD8C98  		call	catch
3AFC: CD8C98  		call	catch
3AFF: CD8C98  		call	catch
3B02: CD8C98  		call	catch
3B05: CD8C98  		call	catch
3B08: CD8C98  		call	catch
3B0B: CD8C98  		call	catch
3B0E: CD8C98  		call	catch
3B11: CD8C98  		call	catch
3B14: CD8C98  		call	catch
3B17: CD8C98  		call	catch
3B1A: CD8C98  		call	catch
3B1D: CD8C98  		call	catch
3B20: CD8C98  		call	catch
3B23: CD8C98  		call	catch
3B26: CD8C98  		call	catch
3B29: CD8C98  		call	catch
3B2C: CD8C98  		call	catch
3B2F: CD8C98  		call	catch
3B32: CD8C98  		call	catch
3B35: CD8C98  		call	catch
3B38: CD8C98  		call	catch
3B3B: CD8C98  		call	catch
3B3E: CD8C98  		call	catch
3B41: CD8C98  		call	catch
3B44: CD8C98  		call	catch
3B47: CD8C98  		call	catch
3B4A: CD8C98  		call	catch
3B4D: CD8C98  		call	catch
3B50: CD8C98  		call	catch
3B53: CD8C98  		call	catch
3B56: CD8C98  		call	catch
3B59: CD8C98  		call	catch
3B5C: CD8C98  		call	catch
3B5F: CD8C98  		call	catch
3B62: CD8C98  		call	catch
3B65: CD8C98  		call	catch
3B68: CD8C98  		call	catch
3B6B: CD8C98  		call	catch
3B6E: CD8C98  		call	catch
3B71: CD8C98  		call	catch
3B74: CD8C98  		call	catch
3B77: CD8C98  		call	catch
3B7A: CD8C98  		call	catch
3B7D: CD8C98  		call	catch
3B80: CD8C98  		call	catch
3B83: CD8C98  		call	catch
3B86: CD8C98  		call	catch
3B89: CD8C98  		call	catch
3B8C: CD8C98  		call	catch
3B8F: CD8C98  		call	catch
3B92: CD8C98  		call	catch
3B95: CD8C98  		call	catch
3B98: CD8C98  		call	catch
3B9B: CD8C98  		call	catch
3B9E: CD8C98  		call	catch
3BA1: CD8C98  		call	catch
3BA4: CD8C98  		call	catch
3BA7: CD8C98  		call	catch
3BAA: CD8C98  		call	catch
3BAD: CD8C98  		call	catch
3BB0: CD8C98  		call	catch
3BB3: CD8C98  		call	catch
3BB6: CD8C98  		call	catch
3BB9: CD8C98  		call	catch
3BBC: CD8C98  		call	catch
3BBF: CD8C98  		call	catch
3BC2: CD8C98  		call	catch
3BC5: CD8C98  		call	catch
3BC8: CD8C98  		call	catch
3BCB: CD8C98  		call	catch
3BCE: CD8C98  		call	catch
3BD1: CD8C98  		call	catch
3BD4: CD8C98  		call	catch
3BD7: CD8C98  		call	catch
3BDA: CD8C98  		call	catch
3BDD: CD8C98  		call	catch
3BE0: CD8C98  		call	catch
3BE3: CD8C98  		call	catch
3BE6: CD8C98  		call	catch
3BE9: CD8C98  		call	catch
3BEC: CD8C98  		call	catch
3BEF: CD8C98  		call	catch
3BF2: CD8C98  		call	catch
3BF5: CD8C98  		call	catch
3BF8: CD8C98  		call	catch
3BFB: CD8C98  		call	catch
3BFE: CD8C98  		call	catch
3C01: CD8C98  		call	catch
3C04: CD8C98  		call	catch
3C07: CD8C98  		call	catch
3C0A: CD8C98  		call	catch
3C0D: CD8C98  		call	catch
3C10: CD8C98  		call	catch
3C13: CD8C98  		call	catch
3C16: CD8C98  		call	catch
3C19: CD8C98  		call	catch
3C1C: CD8C98  		call	catch
3C1F: CD8C98  		call	catch
3C22: CD8C98  		call	catch
3C25: CD8C98  		call	catch
3C28: CD8C98  		call	catch
3C2B: CD8C98  		call	catch
3C2E: CD8C98  		call	catch
3C31: CD8C98  		call	catch
3C34: CD8C98  		call	catch
3C37: CD8C98  		call	catch
3C3A: CD8C98  		call	catch
3C3D: CD8C98  		call	catch
3C40: CD8C98  		call	catch
3C43: CD8C98  		call	catch
3C46: CD8C98  		call	catch
3C49: CD8C98  		call	catch
3C4C: CD8C98  		call	catch
3C4F: CD8C98  		call	catch
3C52: CD8C98  		call	catch
3C55: CD8C98  		call	catch
3C58: CD8C98  		call	catch
3C5B: CD8C98  		call	catch
3C5E: CD8C98  		call	catch
3C61: CD8C98  		call	catch
3C64: CD8C98  		call	catch
3C67: CD8C98  		call	catch
3C6A: CD8C98  		call	catch
3C6D: CD8C98  		call	catch
3C70: CD8C98  		call	catch
3C73: CD8C98  		call	catch
3C76: CD8C98  		call	catch
3C79: CD8C98  		call	catch
3C7C: CD8C98  		call	catch
3C7F: CD8C98  		call	catch
3C82: CD8C98  		call	catch
3C85: CD8C98  		call	catch
3C88: CD8C98  		call	catch
3C8B: CD8C98  		call	catch
3C8E: CD8C98  		call	catch
3C91: CD8C98  		call	catch
3C94: CD8C98  		call	catch
3C97: CD8C98  		call	catch
3C9A: CD8C98  		call	catch
3C9D: CD8C98  		call	catch
3CA0: CD8C98  		call	catch
3CA3: CD8C98  		call	catch
3CA6: CD8C98  		call	catch
3CA9: CD8C98  		call	catch
3CAC: CD8C98  		call	catch
3CAF: CD8C98  		call	catch
3CB2: CD8C98  		call	catch
3CB5: CD8C98  		call	catch
3CB8: CD8C98  		call	catch
3CBB: CD8C98  		call	catch
3CBE: CD8C98  		call	catch
3CC1: CD8C98  		call	catch
3CC4: CD8C98  		call	catch
3CC7: CD8C98  		call	catch
3CCA: CD8C98  		call	catch
3CCD: CD8C98  		call	catch
3CD0: CD8C98  		call	catch
3CD3: CD8C98  		call	catch
3CD6: CD8C98  		call	catch
3CD9: CD8C98  		call	catch
3CDC: CD8C98  		call	catch
3CDF: CD8C98  		call	catch
3CE2: CD8C98  		call	catch
3CE5: CD8C98  		call	catch
3CE8: CD8C98  		call	catch
3CEB: CD8C98  		call	catch
3CEE: CD8C98  		call	catch
3CF1: CD8C98  		call	catch
3CF4: CD8C98  		call	catch
3CF7: CD8C98  		call	catch
3CFA: CD8C98  		call	catch
3CFD: CD8C98  		call	catch
3D00: CD8C98  		call	catch
3D03: CD8C98  		call	catch
3D06: CD8C98  		call	catch
3D09: CD8C98  		call	catch
3D0C: CD8C98  		call	catch
3D0F: CD8C98  		call	catch
3D12: CD8C98  		call	catch
3D15: CD8C98  		call	catch
3D18: CD8C98  		call	catch
3D1B: CD8C98  		call	catch
3D1E: CD8C98  		call	catch
3D21: CD8C98  		call	catch
3D24: CD8C98  		call	catch
3D27: CD8C98  		call	catch
3D2A: CD8C98  		call	catch
3D2D: CD8C98  		call	catch
3D30: CD8C98  		call	catch
3D33: CD8C98  		call	catch
3D36: CD8C98  		call	catch
3D39: CD8C98  		call	catch
3D3C: CD8C98  		call	catch
3D3F: CD8C98  		call	catch
3D42: CD8C98  		call	catch
3D45: CD8C98  		call	catch
3D48: CD8C98  		call	catch
3D4B: CD8C98  		call	catch
3D4E: CD8C98  		call	catch
3D51: CD8C98  		call	catch
3D54: CD8C98  		call	catch
3D57: CD8C98  		call	catch
3D5A: CD8C98  		call	catch
3D5D: CD8C98  		call	catch
3D60: CD8C98  		call	catch
3D63: CD8C98  		call	catch
3D66: CD8C98  		call	catch
3D69: CD8C98  		call	catch
3D6C: CD8C98  		call	catch
3D6F: CD8C98  		call	catch
3D72: CD8C98  		call	catch
3D75: CD8C98  		call	catch
3D78: CD8C98  		call	catch
3D7B: CD8C98  		call	catch
3D7E: CD8C98  		call	catch
3D81: CD8C98  		call	catch
3D84: CD8C98  		call	catch
3D87: CD8C98  		call	catch
3D8A: CD8C98  		call	catch
3D8D: CD8C98  		call	catch
3D90: CD8C98  		call	catch
3D93: CD8C98  		call	catch
3D96: CD8C98  		call	catch
3D99: CD8C98  		call	catch
3D9C: CD8C98  		call	catch
3D9F: CD8C98  		call	catch
3DA2: CD8C98  		call	catch
3DA5: CD8C98  		call	catch
3DA8: CD8C98  		call	catch
3DAB: CD8C98  		call	catch
3DAE: CD8C98  		call	catch
3DB1: CD8C98  		call	catch
3DB4: CD8C98  		call	catch
3DB7: CD8C98  		call	catch
3DBA: CD8C98  		call	catch
3DBD: CD8C98  		call	catch
3DC0: CD8C98  		call	catch
3DC3: CD8C98  		call	catch
3DC6: CD8C98  		call	catch
3DC9: CD8C98  		call	catch
3DCC: CD8C98  		call	catch
3DCF: CD8C98  		call	catch
3DD2: CD8C98  		call	catch
3DD5: CD8C98  		call	catch
3DD8: CD8C98  		call	catch
3DDB: CD8C98  		call	catch
3DDE: CD8C98  		call	catch
3DE1: CD8C98  		call	catch
3DE4: CD8C98  		call	catch
3DE7: CD8C98  		call	catch
3DEA: CD8C98  		call	catch
3DED: CD8C98  		call	catch
3DF0: CD8C98  		call	catch
3DF3: CD8C98  		call	catch
3DF6: CD8C98  		call	catch
3DF9: CD8C98  		call	catch
3DFC: CD8C98  		call	catch
3DFF: CD8C98  		call	catch
3E02: CD8C98  		call	catch
3E05: CD8C98  		call	catch
3E08: CD8C98  		call	catch
3E0B: CD8C98  		call	catch
3E0E: CD8C98  		call	catch
3E11: CD8C98  		call	catch
3E14: CD8C98  		call	catch
3E17: CD8C98  		call	catch
3E1A: CD8C98  		call	catch
3E1D: CD8C98  		call	catch
3E20: CD8C98  		call	catch
3E23: CD8C98  		call	catch
3E26: CD8C98  		call	catch
3E29: CD8C98  		call	catch
3E2C: CD8C98  		call	catch
3E2F: CD8C98  		call	catch
3E32: CD8C98  		call	catch
3E35: CD8C98  		call	catch
3E38: CD8C98  		call	catch
3E3B: CD8C98  		call	catch
3E3E: CD8C98  		call	catch
3E41: CD8C98  		call	catch
3E44: CD8C98  		call	catch
3E47: CD8C98  		call	catch
3E4A: CD8C98  		call	catch
3E4D: CD8C98  		call	catch
3E50: CD8C98  		call	catch
3E53: CD8C98  		call	catch
3E56: CD8C98  		call	catch
3E59: CD8C98  		call	catch
3E5C: CD8C98  		call	catch
3E5F: CD8C98  		call	catch
3E62: CD8C98  		call	catch
3E65: CD8C98  		call	catch
3E68: CD8C98  		call	catch
3E6B: CD8C98  		call	catch
3E6E: CD8C98  		call	catch
3E71: CD8C98  		call	catch
3E74: CD8C98  		call	catch
3E77: CD8C98  		call	catch
3E7A: CD8C98  		call	catch
3E7D: CD8C98  		call	catch
3E80: CD8C98  		call	catch
3E83: CD8C98  		call	catch
3E86: CD8C98  		call	catch
3E89: CD8C98  		call	catch
3E8C: CD8C98  		call	catch
3E8F: CD8C98  		call	catch
3E92: CD8C98  		call	catch
3E95: CD8C98  		call	catch
3E98: CD8C98  		call	catch
3E9B: CD8C98  		call	catch
3E9E: CD8C98  		call	catch
3EA1: CD8C98  		call	catch
3EA4: CD8C98  		call	catch
3EA7: CD8C98  		call	catch
3EAA: CD8C98  		call	catch
3EAD: CD8C98  		call	catch
3EB0: CD8C98  		call	catch
3EB3: CD8C98  		call	catch
3EB6: CD8C98  		call	catch
3EB9: CD8C98  		call	catch
3EBC: CD8C98  		call	catch
3EBF: CD8C98  		call	catch
3EC2: CD8C98  		call	catch
3EC5: CD8C98  		call	catch
3EC8: CD8C98  		call	catch
3ECB: CD8C98  		call	catch
3ECE: CD8C98  		call	catch
3ED1: CD8C98  		call	catch
3ED4: CD8C98  		call	catch
3ED7: CD8C98  		call	catch
3EDA: CD8C98  		call	catch
3EDD: CD8C98  		call	catch
3EE0: CD8C98  		call	catch
3EE3: CD8C98  		call	catch
3EE6: CD8C98  		call	catch
3EE9: CD8C98  		call	catch
3EEC: CD8C98  		call	catch
3EEF: CD8C98  		call	catch
3EF2: CD8C98  		call	catch
3EF5: CD8C98  		call	catch
3EF8: CD8C98  		call	catch
3EFB: CD8C98  		call	catch
3EFE: CD8C98  		call	catch
3F01: CD8C98  		call	catch
3F04: CD8C98  		call	catch
3F07: CD8C98  		call	catch
3F0A: CD8C98  		call	catch
3F0D: CD8C98  		call	catch
3F10: CD8C98  		call	catch
3F13: CD8C98  		call	catch
3F16: CD8C98  		call	catch
3F19: CD8C98  		call	catch
3F1C: CD8C98  		call	catch
3F1F: CD8C98  		call	catch
3F22: CD8C98  		call	catch
3F25: CD8C98  		call	catch
3F28: CD8C98  		call	catch
3F2B: CD8C98  		call	catch
3F2E: CD8C98  		call	catch
3F31: CD8C98  		call	catch
3F34: CD8C98  		call	catch
3F37: CD8C98  		call	catch
3F3A: CD8C98  		call	catch
3F3D: CD8C98  		call	catch
3F40: CD8C98  		call	catch
3F43: CD8C98  		call	catch
3F46: CD8C98  		call	catch
3F49: CD8C98  		call	catch
3F4C: CD8C98  		call	catch
3F4F: CD8C98  		call	catch
3F52: CD8C98  		call	catch
3F55: CD8C98  		call	catch
3F58: CD8C98  		call	catch
3F5B: CD8C98  		call	catch
3F5E: CD8C98  		call	catch
3F61: CD8C98  		call	catch
3F64: CD8C98  		call	catch
3F67: CD8C98  		call	catch
3F6A: CD8C98  		call	catch
3F6D: CD8C98  		call	catch
3F70: CD8C98  		call	catch
3F73: CD8C98  		call	catch
3F76: CD8C98  		call	catch
3F79: CD8C98  		call	catch
3F7C: CD8C98  		call	catch
3F7F: CD8C98  		call	catch
3F82: CD8C98  		call	catch
3F85: CD8C98  		call	catch
3F88: CD8C98  		call	catch
3F8B: CD8C98  		call	catch
3F8E: CD8C98  		call	catch
3F91: CD8C98  		call	catch
3F94: CD8C98  		call	catch
3F97: CD8C98  		call	catch
3F9A: CD8C98  		call	catch
3F9D: CD8C98  		call	catch
3FA0: CD8C98  		call	catch
3FA3: CD8C98  		call	catch
3FA6: CD8C98  		call	catch
3FA9: CD8C98  		call	catch
3FAC: CD8C98  		call	catch
3FAF: CD8C98  		call	catch
3FB2: CD8C98  		call	catch
3FB5: CD8C98  		call	catch
3FB8: CD8C98  		call	catch
3FBB: CD8C98  		call	catch
3FBE: CD8C98  		call	catch
3FC1: CD8C98  		call	catch
3FC4: CD8C98  		call	catch
3FC7: CD8C98  		call	catch
3FCA: CD8C98  		call	catch
3FCD: CD8C98  		call	catch
3FD0: CD8C98  		call	catch
3FD3: CD8C98  		call	catch
3FD6: CD8C98  		call	catch
3FD9: CD8C98  		call	catch
3FDC: CD8C98  		call	catch
3FDF: CD8C98  		call	catch
3FE2: CD8C98  		call	catch
3FE5: CD8C98  		call	catch
3FE8: CD8C98  		call	catch
3FEB: CD8C98  		call	catch
3FEE: CD8C98  		call	catch
3FF1: CD8C98  		call	catch
3FF4: CD8C98  		call	catch
3FF7: CD8C98  		call	catch
3FFA: CD8C98  		call	catch
3FFD: CD8C98  		call	catch
4000: CD8C98  		call	catch
4003: CD8C98  		call	catch
4006: CD8C98  		call	catch
4009: CD8C98  		call	catch
400C: CD8C98  		call	catch
400F: CD8C98  		call	catch
4012: CD8C98  		call	catch
4015: CD8C98  		call	catch
4018: CD8C98  		call	catch
401B: CD8C98  		call	catch
401E: CD8C98  		call	catch
4021: CD8C98  		call	catch
4024: CD8C98  		call	catch
4027: CD8C98  		call	catch
402A: CD8C98  		call	catch
402D: CD8C98  		call	catch
4030: CD8C98  		call	catch
4033: CD8C98  		call	catch
4036: CD8C98  		call	catch
4039: CD8C98  		call	catch
403C: CD8C98  		call	catch
403F: CD8C98  		call	catch
4042: CD8C98  		call	catch
4045: CD8C98  		call	catch
4048: CD8C98  		call	catch
404B: CD8C98  		call	catch
404E: CD8C98  		call	catch
4051: CD8C98  		call	catch
4054: CD8C98  		call	catch
4057: CD8C98  		call	catch
405A: CD8C98  		call	catch
405D: CD8C98  		call	catch
4060: CD8C98  		call	catch
4063: CD8C98  		call	catch
4066: CD8C98  		call	catch
4069: CD8C98  		call	catch
406C: CD8C98  		call	catch
406F: CD8C98  		call	catch
4072: CD8C98  		call	catch
4075: CD8C98  		call	catch
4078: CD8C98  		call	catch
407B: CD8C98  		call	catch
407E: CD8C98  		call	catch
4081: CD8C98  		call	catch
4084: CD8C98  		call	catch
4087: CD8C98  		call	catch
408A: CD8C98  		call	catch
408D: CD8C98  		call	catch
4090: CD8C98  		call	catch
4093: CD8C98  		call	catch
4096: CD8C98  		call	catch
4099: CD8C98  		call	catch
409C: CD8C98  		call	catch
409F: CD8C98  		call	catch
40A2: CD8C98  		call	catch
40A5: CD8C98  		call	catch
40A8: CD8C98  		call	catch
40AB: CD8C98  		call	catch
40AE: CD8C98  		call	catch
40B1: CD8C98  		call	catch
40B4: CD8C98  		call	catch
40B7: CD8C98  		call	catch
40BA: CD8C98  		call	catch
40BD: CD8C98  		call	catch
40C0: CD8C98  		call	catch
40C3: CD8C98  		call	catch
40C6: CD8C98  		call	catch
40C9: CD8C98  		call	catch
40CC: CD8C98  		call	catch
40CF: CD8C98  		call	catch
40D2: CD8C98  		call	catch
40D5: CD8C98  		call	catch
40D8: CD8C98  		call	catch
40DB: CD8C98  		call	catch
40DE: CD8C98  		call	catch
40E1: CD8C98  		call	catch
40E4: CD8C98  		call	catch
40E7: CD8C98  		call	catch
40EA: CD8C98  		call	catch
40ED: CD8C98  		call	catch
40F0: CD8C98  		call	catch
40F3: CD8C98  		call	catch
40F6: CD8C98  		call	catch
40F9: CD8C98  		call	catch
40FC: CD8C98  		call	catch
40FF: CD8C98  		call	catch
4102: CD8C98  		call	catch
4105: CD8C98  		call	catch
4108: CD8C98  		call	catch
410B: CD8C98  		call	catch
410E: CD8C98  		call	catch
4111: CD8C98  		call	catch
4114: CD8C98  		call	catch
4117: CD8C98  		call	catch
411A: CD8C98  		call	catch
411D: CD8C98  		call	catch
4120: CD8C98  		call	catch
4123: CD8C98  		call	catch
4126: CD8C98  		call	catch
4129: CD8C98  		call	catch
412C: CD8C98  		call	catch
412F: CD8C98  		call	catch
4132: CD8C98  		call	catch
4135: CD8C98  		call	catch
4138: CD8C98  		call	catch
413B: CD8C98  		call	catch
413E: CD8C98  		call	catch
4141: CD8C98  		call	catch
4144: CD8C98  		call	catch
4147: CD8C98  		call	catch
414A: CD8C98  		call	catch
414D: CD8C98  		call	catch
4150: CD8C98  		call	catch
4153: CD8C98  		call	catch
4156: CD8C98  		call	catch
4159: CD8C98  		call	catch
415C: CD8C98  		call	catch
415F: CD8C98  		call	catch
4162: CD8C98  		call	catch
4165: CD8C98  		call	catch
4168: CD8C98  		call	catch
416B: CD8C98  		call	catch
416E: CD8C98  		call	catch
4171: CD8C98  		call	catch
4174: CD8C98  		call	catch
4177: CD8C98  		call	catch
417A: CD8C98  		call	catch
417D: CD8C98  		call	catch
4180: CD8C98  		call	catch
4183: CD8C98  		call	catch
4186: CD8C98  		call	catch
4189: CD8C98  		call	catch
418C: CD8C98  		call	catch
418F: CD8C98  		call	catch
4192: CD8C98  		call	catch
4195: CD8C98  		call	catch
4198: CD8C98  		call	catch
419B: CD8C98  		call	catch
419E: CD8C98  		call	catch
41A1: CD8C98  		call	catch
41A4: CD8C98  		call	catch
41A7: CD8C98  		call	catch
41AA: CD8C98  		call	catch
41AD: CD8C98  		call	catch
41B0: CD8C98  		call	catch
41B3: CD8C98  		call	catch
41B6: CD8C98  		call	catch
41B9: CD8C98  		call	catch
41BC: CD8C98  		call	catch
41BF: CD8C98  		call	catch
41C2: CD8C98  		call	catch
41C5: CD8C98  		call	catch
41C8: CD8C98  		call	catch
41CB: CD8C98  		call	catch
41CE: CD8C98  		call	catch
41D1: CD8C98  		call	catch
41D4: CD8C98  		call	catch
41D7: CD8C98  		call	catch
41DA: CD8C98  		call	catch
41DD: CD8C98  		call	catch
41E0: CD8C98  		call	catch
41E3: CD8C98  		call	catch
41E6: CD8C98  		call	catch
41E9: CD8C98  		call	catch
41EC: CD8C98  		call	catch
41EF: CD8C98  		call	catch
41F2: CD8C98  		call	catch
41F5: CD8C98  		call	catch
41F8: CD8C98  		call	catch
41FB: CD8C98  		call	catch
41FE: CD8C98  		call	catch
4201: CD8C98  		call	catch
4204: CD8C98  		call	catch
4207: CD8C98  		call	catch
420A: CD8C98  		call	catch
420D: CD8C98  		call	catch
4210: CD8C98  		call	catch
4213: CD8C98  		call	catch
4216: CD8C98  		call	catch
4219: CD8C98  		call	catch
421C: CD8C98  		call	catch
421F: CD8C98  		call	catch
4222: CD8C98  		call	catch
4225: CD8C98  		call	catch
4228: CD8C98  		call	catch
422B: CD8C98  		call	catch
422E: CD8C98  		call	catch
4231: CD8C98  		call	catch
4234: CD8C98  		call	catch
4237: CD8C98  		call	catch
423A: CD8C98  		call	catch
423D: CD8C98  		call	catch
4240: CD8C98  		call	catch
4243: CD8C98  		call	catch
4246: CD8C98  		call	catch
4249: CD8C98  		call	catch
424C: CD8C98  		call	catch
424F: CD8C98  		call	catch
4252: CD8C98  		call	catch
4255: CD8C98  		call	catch
4258: CD8C98  		call	catch
425B: CD8C98  		call	catch
425E: CD8C98  		call	catch
4261: CD8C98  		call	catch
4264: CD8C98  		call	catch
4267: CD8C98  		call	catch
426A: CD8C98  		call	catch
426D: CD8C98  		call	catch
4270: CD8C98  		call	catch
4273: CD8C98  		call	catch
4276: CD8C98  		call	catch
4279: CD8C98  		call	catch
427C: CD8C98  		call	catch
427F: CD8C98  		call	catch
4282: CD8C98  		call	catch
4285: CD8C98  		call	catch
4288: CD8C98  		call	catch
428B: CD8C98  		call	catch
428E: CD8C98  		call	catch
4291: CD8C98  		call	catch
4294: CD8C98  		call	catch
4297: CD8C98  		call	catch
429A: CD8C98  		call	catch
429D: CD8C98  		call	catch
42A0: CD8C98  		call	catch
42A3: CD8C98  		call	catch
42A6: CD8C98  		call	catch
42A9: CD8C98  		call	catch
42AC: CD8C98  		call	catch
42AF: CD8C98  		call	catch
42B2: CD8C98  		call	catch
42B5: CD8C98  		call	catch
42B8: CD8C98  		call	catch
42BB: CD8C98  		call	catch
42BE: CD8C98  		call	catch
42C1: CD8C98  		call	catch
42C4: CD8C98  		call	catch
42C7: CD8C98  		call	catch
42CA: CD8C98  		call	catch
42CD: CD8C98  		call	catch
42D0: CD8C98  		call	catch
42D3: CD8C98  		call	catch
42D6: CD8C98  		call	catch
42D9: CD8C98  		call	catch
42DC: CD8C98  		call	catch
42DF: CD8C98  		call	catch
42E2: CD8C98  		call	catch
42E5: CD8C98  		call	catch
42E8: CD8C98  		call	catch
42EB: CD8C98  		call	catch
42EE: CD8C98  		call	catch
42F1: CD8C98  		call	catch
42F4: CD8C98  		call	catch
42F7: CD8C98  		call	catch
42FA: CD8C98  		call	catch
42FD: CD8C98  		call	catch
4300: CD8C98  		call	catch
4303: CD8C98  		call	catch
4306: CD8C98  		call	catch
4309: CD8C98  		call	catch
430C: CD8C98  		call	catch
430F: CD8C98  		call	catch
4312: CD8C98  		call	catch
4315: CD8C98  		call	catch
4318: CD8C98  		call	catch
431B: CD8C98  		call	catch
431E: CD8C98  		call	catch
4321: CD8C98  		call	catch
4324: CD8C98  		call	catch
4327: CD8C98  		call	catch
432A: CD8C98  		call	catch
432D: CD8C98  		call	catch
4330: CD8C98  		call	catch
4333: CD8C98  		call	catch
4336: CD8C98  		call	catch
4339: CD8C98  		call	catch
433C: CD8C98  		call	catch
433F: CD8C98  		call	catch
4342: CD8C98  		call	catch
4345: CD8C98  		call	catch
4348: CD8C98  		call	catch
434B: CD8C98  		call	catch
434E: CD8C98  		call	catch
4351: CD8C98  		call	catch
4354: CD8C98  		call	catch
4357: CD8C98  		call	catch
435A: CD8C98  		call	catch
435D: CD8C98  		call	catch
4360: CD8C98  		call	catch
4363: CD8C98  		call	catch
4366: CD8C98  		call	catch
4369: CD8C98  		call	catch
436C: CD8C98  		call	catch
436F: CD8C98  		call	catch
4372: CD8C98  		call	catch
4375: CD8C98  		call	catch
4378: CD8C98  		call	catch
437B: CD8C98  		call	catch
437E: CD8C98  		call	catch
4381: CD8C98  		call	catch
4384: CD8C98  		call	catch
4387: CD8C98  		call	catch
438A: CD8C98  		call	catch
438D: CD8C98  		call	catch
4390: CD8C98  		call	catch
4393: CD8C98  		call	catch
4396: CD8C98  		call	catch
4399: CD8C98  		call	catch
439C: CD8C98  		call	catch
439F: CD8C98  		call	catch
43A2: CD8C98  		call	catch
43A5: CD8C98  		call	catch
43A8: CD8C98  		call	catch
43AB: CD8C98  		call	catch
43AE: CD8C98  		call	catch
43B1: CD8C98  		call	catch
43B4: CD8C98  		call	catch
43B7: CD8C98  		call	catch
43BA: CD8C98  		call	catch
43BD: CD8C98  		call	catch
43C0: CD8C98  		call	catch
43C3: CD8C98  		call	catch
43C6: CD8C98  		call	catch
43C9: CD8C98  		call	catch
43CC: CD8C98  		call	catch
43CF: CD8C98  		call	catch
43D2: CD8C98  		call	catch
43D5: CD8C98  		call	catch
43D8: CD8C98  		call	catch
43DB: CD8C98  		call	catch
43DE: CD8C98  		call	catch
43E1: CD8C98  		call	catch
43E4: CD8C98  		call	catch
43E7: CD8C98  		call	catch
43EA: CD8C98  		call	catch
43ED: CD8C98  		call	catch
43F0: CD8C98  		call	catch
43F3: CD8C98  		call	catch
43F6: CD8C98  		call	catch
43F9: CD8C98  		call	catch
43FC: CD8C98  		call	catch
43FF: CD8C98  		call	catch
4402: CD8C98  		call	catch
4405: CD8C98  		call	catch
4408: CD8C98  		call	catch
440B: CD8C98  		call	catch
440E: CD8C98  		call	catch
4411: CD8C98  		call	catch
4414: CD8C98  		call	catch
4417: CD8C98  		call	catch
441A: CD8C98  		call	catch
441D: CD8C98  		call	catch
4420: CD8C98  		call	catch
4423: CD8C98  		call	catch
4426: CD8C98  		call	catch
4429: CD8C98  		call	catch
442C: CD8C98  		call	catch
442F: CD8C98  		call	catch
4432: CD8C98  		call	catch
4435: CD8C98  		call	catch
4438: CD8C98  		call	catch
443B: CD8C98  		call	catch
443E: CD8C98  		call	catch
4441: CD8C98  		call	catch
4444: CD8C98  		call	catch
4447: CD8C98  		call	catch
444A: CD8C98  		call	catch
444D: CD8C98  		call	catch
4450: CD8C98  		call	catch
4453: CD8C98  		call	catch
4456: CD8C98  		call	catch
4459: CD8C98  		call	catch
445C: CD8C98  		call	catch
445F: CD8C98  		call	catch
4462: CD8C98  		call	catch
4465: CD8C98  		call	catch
4468: CD8C98  		call	catch
446B: CD8C98  		call	catch
446E: CD8C98  		call	catch
4471: CD8C98  		call	catch
4474: CD8C98  		call	catch
4477: CD8C98  		call	catch
447A: CD8C98  		call	catch
447D: CD8C98  		call	catch
4480: CD8C98  		call	catch
4483: CD8C98  		call	catch
4486: CD8C98  		call	catch
4489: CD8C98  		call	catch
448C: CD8C98  		call	catch
448F: CD8C98  		call	catch
4492: CD8C98  		call	catch
4495: CD8C98  		call	catch
4498: CD8C98  		call	catch
449B: CD8C98  		call	catch
449E: CD8C98  		call	catch
44A1: CD8C98  		call	catch
44A4: CD8C98  		call	catch
44A7: CD8C98  		call	catch
44AA: CD8C98  		call	catch
44AD: CD8C98  		call	catch
44B0: CD8C98  		call	catch
44B3: CD8C98  		call	catch
44B6: CD8C98  		call	catch
44B9: CD8C98  		call	catch
44BC: CD8C98  		call	catch
44BF: CD8C98  		call	catch
44C2: CD8C98  		call	catch
44C5: CD8C98  		call	catch
44C8: CD8C98  		call	catch
44CB: CD8C98  		call	catch
44CE: CD8C98  		call	catch
44D1: CD8C98  		call	catch
44D4: CD8C98  		call	catch
44D7: CD8C98  		call	catch
44DA: CD8C98  		call	catch
44DD: CD8C98  		call	catch
44E0: CD8C98  		call	catch
44E3: CD8C98  		call	catch
44E6: CD8C98  		call	catch
44E9: CD8C98  		call	catch
44EC: CD8C98  		call	catch
44EF: CD8C98  		call	catch
44F2: CD8C98  		call	catch
44F5: CD8C98  		call	catch
44F8: CD8C98  		call	catch
44FB: CD8C98  		call	catch
44FE: CD8C98  		call	catch
4501: CD8C98  		call	catch
4504: CD8C98  		call	catch
4507: CD8C98  		call	catch
450A: CD8C98  		call	catch
450D: CD8C98  		call	catch
4510: CD8C98  		call	catch
4513: CD8C98  		call	catch
4516: CD8C98  		call	catch
4519: CD8C98  		call	catch
451C: CD8C98  		call	catch
451F: CD8C98  		call	catch
4522: CD8C98  		call	catch
4525: CD8C98  		call	catch
4528: CD8C98  		call	catch
452B: CD8C98  		call	catch
452E: CD8C98  		call	catch
4531: CD8C98  		call	catch
4534: CD8C98  		call	catch
4537: CD8C98  		call	catch
453A: CD8C98  		call	catch
453D: CD8C98  		call	catch
4540: CD8C98  		call	catch
4543: CD8C98  		call	catch
4546: CD8C98  		call	catch
4549: CD8C98  		call	catch
454C: CD8C98  		call	catch
454F: CD8C98  		call	catch
4552: CD8C98  		call	catch
4555: CD8C98  		call	catch
4558: CD8C98  		call	catch
455B: CD8C98  		call	catch
455E: CD8C98  		call	catch
4561: CD8C98  		call	catch
4564: CD8C98  		call	catch
4567: CD8C98  		call	catch
456A: CD8C98  		call	catch
456D: CD8C98  		call	catch
4570: CD8C98  		call	catch
4573: CD8C98  		call	catch
4576: CD8C98  		call	catch
4579: CD8C98  		call	catch
457C: CD8C98  		call	catch
457F: CD8C98  		call	catch
4582: CD8C98  		call	catch
4585: CD8C98  		call	catch
4588: CD8C98  		call	catch
458B: CD8C98  		call	catch
458E: CD8C98  		call	catch
4591: CD8C98  		call	catch
4594: CD8C98  		call	catch
4597: CD8C98  		call	catch
459A: CD8C98  		call	catch
459D: CD8C98  		call	catch
45A0: CD8C98  		call	catch
45A3: CD8C98  		call	catch
45A6: CD8C98  		call	catch
45A9: CD8C98  		call	catch
45AC: CD8C98  		call	catch
45AF: CD8C98  		call	catch
45B2: CD8C98  		call	catch
45B5: CD8C98  		call	catch
45B8: CD8C98  		call	catch
45BB: CD8C98  		call	catch
45BE: CD8C98  		call	catch
45C1: CD8C98  		call	catch
45C4: CD8C98  		call	catch
45C7: CD8C98  		call	catch
45CA: CD8C98  		call	catch
45CD: CD8C98  		call	catch
45D0: CD8C98  		call	catch
45D3: CD8C98  		call	catch
45D6: CD8C98  		call	catch
45D9: CD8C98  		call	catch
45DC: CD8C98  		call	catch
45DF: CD8C98  		call	catch
45E2: CD8C98  		call	catch
45E5: CD8C98  		call	catch
45E8: CD8C98  		call	catch
45EB: CD8C98  		call	catch
45EE: CD8C98  		call	catch
45F1: CD8C98  		call	catch
45F4: CD8C98  		call	catch
45F7: CD8C98  		call	catch
45FA: CD8C98  		call	catch
45FD: CD8C98  		call	catch
4600: CD8C98  		call	catch
4603: CD8C98  		call	catch
4606: CD8C98  		call	catch
4609: CD8C98  		call	catch
460C: CD8C98  		call	catch
460F: CD8C98  		call	catch
4612: CD8C98  		call	catch
4615: CD8C98  		call	catch
4618: CD8C98  		call	catch
461B: CD8C98  		call	catch
461E: CD8C98  		call	catch
4621: CD8C98  		call	catch
4624: CD8C98  		call	catch
4627: CD8C98  		call	catch
462A: CD8C98  		call	catch
462D: CD8C98  		call	catch
4630: CD8C98  		call	catch
4633: CD8C98  		call	catch
4636: CD8C98  		call	catch
4639: CD8C98  		call	catch
463C: CD8C98  		call	catch
463F: CD8C98  		call	catch
4642: CD8C98  		call	catch
4645: CD8C98  		call	catch
4648: CD8C98  		call	catch
464B: CD8C98  		call	catch
464E: CD8C98  		call	catch
4651: CD8C98  		call	catch
4654: CD8C98  		call	catch
4657: CD8C98  		call	catch
465A: CD8C98  		call	catch
465D: CD8C98  		call	catch
4660: CD8C98  		call	catch
4663: CD8C98  		call	catch
4666: CD8C98  		call	catch
4669: CD8C98  		call	catch
466C: CD8C98  		call	catch
466F: CD8C98  		call	catch
4672: CD8C98  		call	catch
4675: CD8C98  		call	catch
4678: CD8C98  		call	catch
467B: CD8C98  		call	catch
467E: CD8C98  		call	catch
4681: CD8C98  		call	catch
4684: CD8C98  		call	catch
4687: CD8C98  		call	catch
468A: CD8C98  		call	catch
468D: CD8C98  		call	catch
4690: CD8C98  		call	catch
4693: CD8C98  		call	catch
4696: CD8C98  		call	catch
4699: CD8C98  		call	catch
469C: CD8C98  		call	catch
469F: CD8C98  		call	catch
46A2: CD8C98  		call	catch
46A5: CD8C98  		call	catch
46A8: CD8C98  		call	catch
46AB: CD8C98  		call	catch
46AE: CD8C98  		call	catch
46B1: CD8C98  		call	catch
46B4: CD8C98  		call	catch
46B7: CD8C98  		call	catch
46BA: CD8C98  		call	catch
46BD: CD8C98  		call	catch
46C0: CD8C98  		call	catch
46C3: CD8C98  		call	catch
46C6: CD8C98  		call	catch
46C9: CD8C98  		call	catch
46CC: CD8C98  		call	catch
46CF: CD8C98  		call	catch
46D2: CD8C98  		call	catch
46D5: CD8C98  		call	catch
46D8: CD8C98  		call	catch
46DB: CD8C98  		call	catch
46DE: CD8C98  		call	catch
46E1: CD8C98  		call	catch
46E4: CD8C98  		call	catch
46E7: CD8C98  		call	catch
46EA: CD8C98  		call	catch
46ED: CD8C98  		call	catch
46F0: CD8C98  		call	catch
46F3: CD8C98  		call	catch
46F6: CD8C98  		call	catch
46F9: CD8C98  		call	catch
46FC: CD8C98  		call	catch
46FF: CD8C98  		call	catch
4702: CD8C98  		call	catch
4705: CD8C98  		call	catch
4708: CD8C98  		call	catch
470B: CD8C98  		call	catch
470E: CD8C98  		call	catch
4711: CD8C98  		call	catch
4714: CD8C98  		call	catch
4717: CD8C98  		call	catch
471A: CD8C98  		call	catch
471D: CD8C98  		call	catch
4720: CD8C98  		call	catch
4723: CD8C98  		call	catch
4726: CD8C98  		call	catch
4729: CD8C98  		call	catch
472C: CD8C98  		call	catch
472F: CD8C98  		call	catch
4732: CD8C98  		call	catch
4735: CD8C98  		call	catch
4738: CD8C98  		call	catch
473B: CD8C98  		call	catch
473E: CD8C98  		call	catch
4741: CD8C98  		call	catch
4744: CD8C98  		call	catch
4747: CD8C98  		call	catch
474A: CD8C98  		call	catch
474D: CD8C98  		call	catch
4750: CD8C98  		call	catch
4753: CD8C98  		call	catch
4756: CD8C98  		call	catch
4759: CD8C98  		call	catch
475C: CD8C98  		call	catch
475F: CD8C98  		call	catch
4762: CD8C98  		call	catch
4765: CD8C98  		call	catch
4768: CD8C98  		call	catch
476B: CD8C98  		call	catch
476E: CD8C98  		call	catch
4771: CD8C98  		call	catch
4774: CD8C98  		call	catch
4777: CD8C98  		call	catch
477A: CD8C98  		call	catch
477D: CD8C98  		call	catch
4780: CD8C98  		call	catch
4783: CD8C98  		call	catch
4786: CD8C98  		call	catch
4789: CD8C98  		call	catch
478C: CD8C98  		call	catch
478F: CD8C98  		call	catch
4792: CD8C98  		call	catch
4795: CD8C98  		call	catch
4798: CD8C98  		call	catch
479B: CD8C98  		call	catch
479E: CD8C98  		call	catch
47A1: CD8C98  		call	catch
47A4: CD8C98  		call	catch
47A7: CD8C98  		call	catch
47AA: CD8C98  		call	catch
47AD: CD8C98  		call	catch
47B0: CD8C98  		call	catch
47B3: CD8C98  		call	catch
47B6: CD8C98  		call	catch
47B9: CD8C98  		call	catch
47BC: CD8C98  		call	catch
47BF: CD8C98  		call	catch
47C2: CD8C98  		call	catch
47C5: CD8C98  		call	catch
47C8: CD8C98  		call	catch
47CB: CD8C98  		call	catch
47CE: CD8C98  		call	catch
47D1: CD8C98  		call	catch
47D4: CD8C98  		call	catch
47D7: CD8C98  		call	catch
47DA: CD8C98  		call	catch
47DD: CD8C98  		call	catch
47E0: CD8C98  		call	catch
47E3: CD8C98  		call	catch
47E6: CD8C98  		call	catch
47E9: CD8C98  		call	catch
47EC: CD8C98  		call	catch
47EF: CD8C98  		call	catch
47F2: CD8C98  		call	catch
47F5: CD8C98  		call	catch
47F8: CD8C98  		call	catch
47FB: CD8C98  		call	catch
47FE: CD8C98  		call	catch
4801: CD8C98  		call	catch
4804: CD8C98  		call	catch
4807: CD8C98  		call	catch
480A: CD8C98  		call	catch
480D: CD8C98  		call	catch
4810: CD8C98  		call	catch
4813: CD8C98  		call	catch
4816: CD8C98  		call	catch
4819: CD8C98  		call	catch
481C: CD8C98  		call	catch
481F: CD8C98  		call	catch
4822: CD8C98  		call	catch
4825: CD8C98  		call	catch
4828: CD8C98  		call	catch
482B: CD8C98  		call	catch
482E: CD8C98  		call	catch
4831: CD8C98  		call	catch
4834: CD8C98  		call	catch
4837: CD8C98  		call	catch
483A: CD8C98  		call	catch
483D: CD8C98  		call	catch
4840: CD8C98  		call	catch
4843: CD8C98  		call	catch
4846: CD8C98  		call	catch
4849: CD8C98  		call	catch
484C: CD8C98  		call	catch
484F: CD8C98  		call	catch
4852: CD8C98  		call	catch
4855: CD8C98  		call	catch
4858: CD8C98  		call	catch
485B: CD8C98  		call	catch
485E: CD8C98  		call	catch
4861: CD8C98  		call	catch
4864: CD8C98  		call	catch
4867: CD8C98  		call	catch
486A: CD8C98  		call	catch
486D: CD8C98  		call	catch
4870: CD8C98  		call	catch
4873: CD8C98  		call	catch
4876: CD8C98  		call	catch
4879: CD8C98  		call	catch
487C: CD8C98  		call	catch
487F: CD8C98  		call	catch
4882: CD8C98  		call	catch
4885: CD8C98  		call	catch
4888: CD8C98  		call	catch
488B: CD8C98  		call	catch
488E: CD8C98  		call	catch
4891: CD8C98  		call	catch
4894: CD8C98  		call	catch
4897: CD8C98  		call	catch
489A: CD8C98  		call	catch
489D: CD8C98  		call	catch
48A0: CD8C98  		call	catch
48A3: CD8C98  		call	catch
48A6: CD8C98  		call	catch
48A9: CD8C98  		call	catch
48AC: CD8C98  		call	catch
48AF: CD8C98  		call	catch
48B2: CD8C98  		call	catch
48B5: CD8C98  		call	catch
48B8: CD8C98  		call	catch
48BB: CD8C98  		call	catch
48BE: CD8C98  		call	catch
48C1: CD8C98  		call	catch
48C4: CD8C98  		call	catch
48C7: CD8C98  		call	catch
48CA: CD8C98  		call	catch
48CD: CD8C98  		call	catch
48D0: CD8C98  		call	catch
48D3: CD8C98  		call	catch
48D6: CD8C98  		call	catch
48D9: CD8C98  		call	catch
48DC: CD8C98  		call	catch
48DF: CD8C98  		call	catch
48E2: CD8C98  		call	catch
48E5: CD8C98  		call	catch
48E8: CD8C98  		call	catch
48EB: CD8C98  		call	catch
48EE: CD8C98  		call	catch
48F1: CD8C98  		call	catch
48F4: CD8C98  		call	catch
48F7: CD8C98  		call	catch
48FA: CD8C98  		call	catch
48FD: CD8C98  		call	catch
4900: CD8C98  		call	catch
4903: CD8C98  		call	catch
4906: CD8C98  		call	catch
4909: CD8C98  		call	catch
490C: CD8C98  		call	catch
490F: CD8C98  		call	catch
4912: CD8C98  		call	catch
4915: CD8C98  		call	catch
4918: CD8C98  		call	catch
491B: CD8C98  		call	catch
491E: CD8C98  		call	catch
4921: CD8C98  		call	catch
4924: CD8C98  		call	catch
4927: CD8C98  		call	catch
492A: CD8C98  		call	catch
492D: CD8C98  		call	catch
4930: CD8C98  		call	catch
4933: CD8C98  		call	catch
4936: CD8C98  		call	catch
4939: CD8C98  		call	catch
493C: CD8C98  		call	catch
493F: CD8C98  		call	catch
4942: CD8C98  		call	catch
4945: CD8C98  		call	catch
4948: CD8C98  		call	catch
494B: CD8C98  		call	catch
494E: CD8C98  		call	catch
4951: CD8C98  		call	catch
4954: CD8C98  		call	catch
4957: CD8C98  		call	catch
495A: CD8C98  		call	catch
495D: CD8C98  		call	catch
4960: CD8C98  		call	catch
4963: CD8C98  		call	catch
4966: CD8C98  		call	catch
4969: CD8C98  		call	catch
496C: CD8C98  		call	catch
496F: CD8C98  		call	catch
4972: CD8C98  		call	catch
4975: CD8C98  		call	catch
4978: CD8C98  		call	catch
497B: CD8C98  		call	catch
497E: CD8C98  		call	catch
4981: CD8C98  		call	catch
4984: CD8C98  		call	catch
4987: CD8C98  		call	catch
498A: CD8C98  		call	catch
498D: CD8C98  		call	catch
4990: CD8C98  		call	catch
4993: CD8C98  		call	catch
4996: CD8C98  		call	catch
4999: CD8C98  		call	catch
499C: CD8C98  		call	catch
499F: CD8C98  		call	catch
49A2: CD8C98  		call	catch
49A5: CD8C98  		call	catch
49A8: CD8C98  		call	catch
49AB: CD8C98  		call	catch
49AE: CD8C98  		call	catch
49B1: CD8C98  		call	catch
49B4: CD8C98  		call	catch
49B7: CD8C98  		call	catch
49BA: CD8C98  		call	catch
49BD: CD8C98  		call	catch
49C0: CD8C98  		call	catch
49C3: CD8C98  		call	catch
49C6: CD8C98  		call	catch
49C9: CD8C98  		call	catch
49CC: CD8C98  		call	catch
49CF: CD8C98  		call	catch
49D2: CD8C98  		call	catch
49D5: CD8C98  		call	catch
49D8: CD8C98  		call	catch
49DB: CD8C98  		call	catch
49DE: CD8C98  		call	catch
49E1: CD8C98  		call	catch
49E4: CD8C98  		call	catch
49E7: CD8C98  		call	catch
49EA: CD8C98  		call	catch
49ED: CD8C98  		call	catch
49F0: CD8C98  		call	catch
49F3: CD8C98  		call	catch
49F6: CD8C98  		call	catch
49F9: CD8C98  		call	catch
49FC: CD8C98  		call	catch
49FF: CD8C98  		call	catch
4A02: CD8C98  		call	catch
4A05: CD8C98  		call	catch
4A08: CD8C98  		call	catch
4A0B: CD8C98  		call	catch
4A0E: CD8C98  		call	catch
4A11: CD8C98  		call	catch
4A14: CD8C98  		call	catch
4A17: CD8C98  		call	catch
4A1A: CD8C98  		call	catch
4A1D: CD8C98  		call	catch
4A20: CD8C98  		call	catch
4A23: CD8C98  		call	catch
4A26: CD8C98  		call	catch
4A29: CD8C98  		call	catch
4A2C: CD8C98  		call	catch
4A2F: CD8C98  		call	catch
4A32: CD8C98  		call	catch
4A35: CD8C98  		call	catch
4A38: CD8C98  		call	catch
4A3B: CD8C98  		call	catch
4A3E: CD8C98  		call	catch
4A41: CD8C98  		call	catch
4A44: CD8C98  		call	catch
4A47: CD8C98  		call	catch
4A4A: CD8C98  		call	catch
4A4D: CD8C98  		call	catch
4A50: CD8C98  		call	catch
4A53: CD8C98  		call	catch
4A56: CD8C98  		call	catch
4A59: CD8C98  		call	catch
4A5C: CD8C98  		call	catch
4A5F: CD8C98  		call	catch
4A62: CD8C98  		call	catch
4A65: CD8C98  		call	catch
4A68: CD8C98  		call	catch
4A6B: CD8C98  		call	catch
4A6E: CD8C98  		call	catch
4A71: CD8C98  		call	catch
4A74: CD8C98  		call	catch
4A77: CD8C98  		call	catch
4A7A: CD8C98  		call	catch
4A7D: CD8C98  		call	catch
4A80: CD8C98  		call	catch
4A83: CD8C98  		call	catch
4A86: CD8C98  		call	catch
4A89: CD8C98  		call	catch
4A8C: CD8C98  		call	catch
4A8F: CD8C98  		call	catch
4A92: CD8C98  		call	catch
4A95: CD8C98  		call	catch
4A98: CD8C98  		call	catch
4A9B: CD8C98  		call	catch
4A9E: CD8C98  		call	catch
4AA1: CD8C98  		call	catch
4AA4: CD8C98  		call	catch
4AA7: CD8C98  		call	catch
4AAA: CD8C98  		call	catch
4AAD: CD8C98  		call	catch
4AB0: CD8C98  		call	catch
4AB3: CD8C98  		call	catch
4AB6: CD8C98  		call	catch
4AB9: CD8C98  		call	catch
4ABC: CD8C98  		call	catch
4ABF: CD8C98  		call	catch
4AC2: CD8C98  		call	catch
4AC5: CD8C98  		call	catch
4AC8: CD8C98  		call	catch
4ACB: CD8C98  		call	catch
4ACE: CD8C98  		call	catch
4AD1: CD8C98  		call	catch
4AD4: CD8C98  		call	catch
4AD7: CD8C98  		call	catch
4ADA: CD8C98  		call	catch
4ADD: CD8C98  		call	catch
4AE0: CD8C98  		call	catch
4AE3: CD8C98  		call	catch
4AE6: CD8C98  		call	catch
4AE9: CD8C98  		call	catch
4AEC: CD8C98  		call	catch
4AEF: CD8C98  		call	catch
4AF2: CD8C98  		call	catch
4AF5: CD8C98  		call	catch
4AF8: CD8C98  		call	catch
4AFB: CD8C98  		call	catch
4AFE: CD8C98  		call	catch
4B01: CD8C98  		call	catch
4B04: CD8C98  		call	catch
4B07: CD8C98  		call	catch
4B0A: CD8C98  		call	catch
4B0D: CD8C98  		call	catch
4B10: CD8C98  		call	catch
4B13: CD8C98  		call	catch
4B16: CD8C98  		call	catch
4B19: CD8C98  		call	catch
4B1C: CD8C98  		call	catch
4B1F: CD8C98  		call	catch
4B22: CD8C98  		call	catch
4B25: CD8C98  		call	catch
4B28: CD8C98  		call	catch
4B2B: CD8C98  		call	catch
4B2E: CD8C98  		call	catch
4B31: CD8C98  		call	catch
4B34: CD8C98  		call	catch
4B37: CD8C98  		call	catch
4B3A: CD8C98  		call	catch
4B3D: CD8C98  		call	catch
4B40: CD8C98  		call	catch
4B43: CD8C98  		call	catch
4B46: CD8C98  		call	catch
4B49: CD8C98  		call	catch
4B4C: CD8C98  		call	catch
4B4F: CD8C98  		call	catch
4B52: CD8C98  		call	catch
4B55: CD8C98  		call	catch
4B58: CD8C98  		call	catch
4B5B: CD8C98  		call	catch
4B5E: CD8C98  		call	catch
4B61: CD8C98  		call	catch
4B64: CD8C98  		call	catch
4B67: CD8C98  		call	catch
4B6A: CD8C98  		call	catch
4B6D: CD8C98  		call	catch
4B70: CD8C98  		call	catch
4B73: CD8C98  		call	catch
4B76: CD8C98  		call	catch
4B79: CD8C98  		call	catch
4B7C: CD8C98  		call	catch
4B7F: CD8C98  		call	catch
4B82: CD8C98  		call	catch
4B85: CD8C98  		call	catch
4B88: CD8C98  		call	catch
4B8B: CD8C98  		call	catch
4B8E: CD8C98  		call	catch
4B91: CD8C98  		call	catch
4B94: CD8C98  		call	catch
4B97: CD8C98  		call	catch
4B9A: CD8C98  		call	catch
4B9D: CD8C98  		call	catch
4BA0: CD8C98  		call	catch
4BA3: CD8C98  		call	catch
4BA6: CD8C98  		call	catch
4BA9: CD8C98  		call	catch
4BAC: CD8C98  		call	catch
4BAF: CD8C98  		call	catch
4BB2: CD8C98  		call	catch
4BB5: CD8C98  		call	catch
4BB8: CD8C98  		call	catch
4BBB: CD8C98  		call	catch
4BBE: CD8C98  		call	catch
4BC1: CD8C98  		call	catch
4BC4: CD8C98  		call	catch
4BC7: CD8C98  		call	catch
4BCA: CD8C98  		call	catch
4BCD: CD8C98  		call	catch
4BD0: CD8C98  		call	catch
4BD3: CD8C98  		call	catch
4BD6: CD8C98  		call	catch
4BD9: CD8C98  		call	catch
4BDC: CD8C98  		call	catch
4BDF: CD8C98  		call	catch
4BE2: CD8C98  		call	catch
4BE5: CD8C98  		call	catch
4BE8: CD8C98  		call	catch
4BEB: CD8C98  		call	catch
4BEE: CD8C98  		call	catch
4BF1: CD8C98  		call	catch
4BF4: CD8C98  		call	catch
4BF7: CD8C98  		call	catch
4BFA: CD8C98  		call	catch
4BFD: CD8C98  		call	catch
4C00: CD8C98  		call	catch
4C03: CD8C98  		call	catch
4C06: CD8C98  		call	catch
4C09: CD8C98  		call	catch
4C0C: CD8C98  		call	catch
4C0F: CD8C98  		call	catch
4C12: CD8C98  		call	catch
4C15: CD8C98  		call	catch
4C18: CD8C98  		call	catch
4C1B: CD8C98  		call	catch
4C1E: CD8C98  		call	catch
4C21: CD8C98  		call	catch
4C24: CD8C98  		call	catch
4C27: CD8C98  		call	catch
4C2A: CD8C98  		call	catch
4C2D: CD8C98  		call	catch
4C30: CD8C98  		call	catch
4C33: CD8C98  		call	catch
4C36: CD8C98  		call	catch
4C39: CD8C98  		call	catch
4C3C: CD8C98  		call	catch
4C3F: CD8C98  		call	catch
4C42: CD8C98  		call	catch
4C45: CD8C98  		call	catch
4C48: CD8C98  		call	catch
4C4B: CD8C98  		call	catch
4C4E: CD8C98  		call	catch
4C51: CD8C98  		call	catch
4C54: CD8C98  		call	catch
4C57: CD8C98  		call	catch
4C5A: CD8C98  		call	catch
4C5D: CD8C98  		call	catch
4C60: CD8C98  		call	catch
4C63: CD8C98  		call	catch
4C66: CD8C98  		call	catch
4C69: CD8C98  		call	catch
4C6C: CD8C98  		call	catch
4C6F: CD8C98  		call	catch
4C72: CD8C98  		call	catch
4C75: CD8C98  		call	catch
4C78: CD8C98  			call	catch
4C7B: CD8C98  		call	catch
4C7E: CD8C98  		call	catch
4C81: CD8C98  		call	catch
4C84: CD8C98  		call	catch
4C87: CD8C98  		call	catch
4C8A: CD8C98  		call	catch
4C8D: CD8C98  		call	catch
4C90: CD8C98  		call	catch
4C93: CD8C98  		call	catch
4C96: CD8C98  		call	catch
4C99: CD8C98  		call	catch
4C9C: CD8C98  		call	catch
4C9F: CD8C98  		call	catch
4CA2: CD8C98  		call	catch
4CA5: CD8C98  		call	catch
4CA8: CD8C98  		call	catch
4CAB: CD8C98  		call	catch
4CAE: CD8C98  		call	catch
4CB1: CD8C98  		call	catch
4CB4: CD8C98  		call	catch
4CB7: CD8C98  		call	catch
4CBA: CD8C98  		call	catch
4CBD: CD8C98  		call	catch
4CC0: CD8C98  		call	catch
4CC3: CD8C98  		call	catch
4CC6: CD8C98  		call	catch
4CC9: CD8C98  		call	catch
4CCC: CD8C98  		call	catch
4CCF: CD8C98  		call	catch
4CD2: CD8C98  		call	catch
4CD5: CD8C98  		call	catch
4CD8: CD8C98  		call	catch
4CDB: CD8C98  		call	catch
4CDE: CD8C98  		call	catch
4CE1: CD8C98  		call	catch
4CE4: CD8C98  		call	catch
4CE7: CD8C98  		call	catch
4CEA: CD8C98  		call	catch
4CED: CD8C98  		call	catch
4CF0: CD8C98  		call	catch
4CF3: CD8C98  		call	catch
4CF6: CD8C98  		call	catch
4CF9: CD8C98  		call	catch
4CFC: CD8C98  		call	catch
4CFF: CD8C98  		call	catch
4D02: CD8C98  		call	catch
4D05: CD8C98  		call	catch
4D08: CD8C98  		call	catch
4D0B: CD8C98  		call	catch
4D0E: CD8C98  		call	catch
4D11: CD8C98  		call	catch
4D14: CD8C98  		call	catch
4D17: CD8C98  		call	catch
4D1A: CD8C98  		call	catch
4D1D: CD8C98  		call	catch
4D20: CD8C98  		call	catch
4D23: CD8C98  		call	catch
4D26: CD8C98  		call	catch
4D29: CD8C98  		call	catch
4D2C: CD8C98  		call	catch
4D2F: CD8C98  		call	catch
4D32: CD8C98  		call	catch
4D35: CD8C98  		call	catch
4D38: CD8C98  		call	catch
4D3B: CD8C98  		call	catch
4D3E: CD8C98  		call	catch
4D41: CD8C98  		call	catch
4D44: CD8C98  		call	catch
4D47: CD8C98  		call	catch
4D4A: CD8C98  		call	catch
4D4D: CD8C98  		call	catch
4D50: CD8C98  		call	catch
4D53: CD8C98  		call	catch
4D56: CD8C98  		call	catch
4D59: CD8C98  		call	catch
4D5C: CD8C98  		call	catch
4D5F: CD8C98  		call	catch
4D62: CD8C98  		call	catch
4D65: CD8C98  		call	catch
4D68: CD8C98  		call	catch
4D6B: CD8C98  		call	catch
4D6E: CD8C98  		call	catch
4D71: CD8C98  		call	catch
4D74: CD8C98  		call	catch
4D77: CD8C98  		call	catch
4D7A: CD8C98  		call	catch
4D7D: CD8C98  		call	catch
4D80: CD8C98  		call	catch
4D83: CD8C98  		call	catch
4D86: CD8C98  		call	catch
4D89: CD8C98  		call	catch
4D8C: CD8C98  		call	catch
4D8F: CD8C98  		call	catch
4D92: CD8C98  		call	catch
4D95: CD8C98  		call	catch
4D98: CD8C98  		call	catch
4D9B: CD8C98  		call	catch
4D9E: CD8C98  		call	catch
4DA1: CD8C98  		call	catch
4DA4: CD8C98  		call	catch
4DA7: CD8C98  		call	catch
4DAA: CD8C98  		call	catch
4DAD: CD8C98  		call	catch
4DB0: CD8C98  		call	catch
4DB3: CD8C98  		call	catch
4DB6: CD8C98  		call	catch
4DB9: CD8C98  		call	catch
4DBC: CD8C98  		call	catch
4DBF: CD8C98  		call	catch
4DC2: CD8C98  		call	catch
4DC5: CD8C98  		call	catch
4DC8: CD8C98  		call	catch
4DCB: CD8C98  		call	catch
4DCE: CD8C98  		call	catch
4DD1: CD8C98  		call	catch
4DD4: CD8C98  		call	catch
4DD7: CD8C98  		call	catch
4DDA: CD8C98  		call	catch
4DDD: CD8C98  		call	catch
4DE0: CD8C98  		call	catch
4DE3: CD8C98  		call	catch
4DE6: CD8C98  		call	catch
4DE9: CD8C98  		call	catch
4DEC: CD8C98  		call	catch
4DEF: CD8C98  		call	catch
4DF2: CD8C98  		call	catch
4DF5: CD8C98  		call	catch
4DF8: CD8C98  		call	catch
4DFB: CD8C98  		call	catch
4DFE: CD8C98  		call	catch
4E01: CD8C98  		call	catch
4E04: CD8C98  		call	catch
4E07: CD8C98  		call	catch
4E0A: CD8C98  		call	catch
4E0D: CD8C98  		call	catch
4E10: CD8C98  		call	catch
4E13: CD8C98  		call	catch
4E16: CD8C98  		call	catch
4E19: CD8C98  		call	catch
4E1C: CD8C98  		call	catch
4E1F: CD8C98  		call	catch
4E22: CD8C98  		call	catch
4E25: CD8C98  		call	catch
4E28: CD8C98  		call	catch
4E2B: CD8C98  		call	catch
4E2E: CD8C98  		call	catch
4E31: CD8C98  		call	catch
4E34: CD8C98  		call	catch
4E37: CD8C98  		call	catch
4E3A: CD8C98  		call	catch
4E3D: CD8C98  		call	catch
4E40: CD8C98  		call	catch
4E43: CD8C98  		call	catch
4E46: CD8C98  		call	catch
4E49: CD8C98  		call	catch
4E4C: CD8C98  		call	catch
4E4F: CD8C98  		call	catch
4E52: CD8C98  		call	catch
4E55: CD8C98  		call	catch
4E58: CD8C98  		call	catch
4E5B: CD8C98  		call	catch
4E5E: CD8C98  		call	catch
4E61: CD8C98  		call	catch
4E64: CD8C98  		call	catch
4E67: CD8C98  		call	catch
4E6A: CD8C98  		call	catch
4E6D: CD8C98  		call	catch
4E70: CD8C98  		call	catch
4E73: CD8C98  		call	catch
4E76: CD8C98  		call	catch
4E79: CD8C98  		call	catch
4E7C: CD8C98  		call	catch
4E7F: CD8C98  		call	catch
4E82: CD8C98  		call	catch
4E85: CD8C98  		call	catch
4E88: CD8C98  		call	catch
4E8B: CD8C98  		call	catch
4E8E: CD8C98  		call	catch
4E91: CD8C98  		call	catch
4E94: CD8C98  		call	catch
4E97: CD8C98  		call	catch
4E9A: CD8C98  		call	catch
4E9D: CD8C98  		call	catch
4EA0: CD8C98  		call	catch
4EA3: CD8C98  		call	catch
4EA6: CD8C98  		call	catch
4EA9: CD8C98  		call	catch
4EAC: CD8C98  		call	catch
4EAF: CD8C98  		call	catch
4EB2: CD8C98  		call	catch
4EB5: CD8C98  		call	catch
4EB8: CD8C98  		call	catch
4EBB: CD8C98  		call	catch
4EBE: CD8C98  		call	catch
4EC1: CD8C98  		call	catch
4EC4: CD8C98  		call	catch
4EC7: CD8C98  		call	catch
4ECA: CD8C98  		call	catch
4ECD: CD8C98  		call	catch
4ED0: CD8C98  		call	catch
4ED3: CD8C98  		call	catch
4ED6: CD8C98  		call	catch
4ED9: CD8C98  		call	catch
4EDC: CD8C98  		call	catch
4EDF: CD8C98  		call	catch
4EE2: CD8C98  		call	catch
4EE5: CD8C98  		call	catch
4EE8: CD8C98  		call	catch
4EEB: CD8C98  		call	catch
4EEE: CD8C98  		call	catch
4EF1: CD8C98  		call	catch
4EF4: CD8C98  		call	catch
4EF7: CD8C98  		call	catch
4EFA: CD8C98  		call	catch
4EFD: CD8C98  		call	catch
4F00: CD8C98  		call	catch
4F03: CD8C98  		call	catch
4F06: CD8C98  		call	catch
4F09: CD8C98  		call	catch
4F0C: CD8C98  		call	catch
4F0F: CD8C98  		call	catch
4F12: CD8C98  		call	catch
4F15: CD8C98  		call	catch
4F18: CD8C98  		call	catch
4F1B: CD8C98  		call	catch
4F1E: CD8C98  		call	catch
4F21: CD8C98  		call	catch
4F24: CD8C98  		call	catch
4F27: CD8C98  		call	catch
4F2A: CD8C98  		call	catch
4F2D: CD8C98  		call	catch
4F30: CD8C98  		call	catch
4F33: CD8C98  		call	catch
4F36: CD8C98  		call	catch
4F39: CD8C98  		call	catch
4F3C: CD8C98  		call	catch
4F3F: CD8C98  		call	catch
4F42: CD8C98  		call	catch
4F45: CD8C98  		call	catch
4F48: CD8C98  		call	catch
4F4B: CD8C98  		call	catch
4F4E: CD8C98  		call	catch
4F51: CD8C98  		call	catch
4F54: CD8C98  		call	catch
4F57: CD8C98  		call	catch
4F5A: CD8C98  		call	catch
4F5D: CD8C98  		call	catch
4F60: CD8C98  		call	catch
4F63: CD8C98  		call	catch
4F66: CD8C98  		call	catch
4F69: CD8C98  		call	catch
4F6C: CD8C98  		call	catch
4F6F: CD8C98  		call	catch
4F72: CD8C98  		call	catch
4F75: CD8C98  		call	catch
4F78: CD8C98  		call	catch
4F7B: CD8C98  		call	catch
4F7E: CD8C98  		call	catch
4F81: CD8C98  		call	catch
4F84: CD8C98  		call	catch
4F87: CD8C98  		call	catch
4F8A: CD8C98  		call	catch
4F8D: CD8C98  		call	catch
4F90: CD8C98  		call	catch
4F93: CD8C98  		call	catch
4F96: CD8C98  		call	catch
4F99: CD8C98  		call	catch
4F9C: CD8C98  		call	catch
4F9F: CD8C98  		call	catch
4FA2: CD8C98  		call	catch
4FA5: CD8C98  		call	catch
4FA8: CD8C98  		call	catch
4FAB: CD8C98  		call	catch
4FAE: CD8C98  		call	catch
4FB1: CD8C98  		call	catch
4FB4: CD8C98  		call	catch
4FB7: CD8C98  		call	catch
4FBA: CD8C98  		call	catch
4FBD: CD8C98  		call	catch
4FC0: CD8C98  		call	catch
4FC3: CD8C98  		call	catch
4FC6: CD8C98  		call	catch
4FC9: CD8C98  		call	catch
4FCC: CD8C98  		call	catch
4FCF: CD8C98  		call	catch
4FD2: CD8C98  		call	catch
4FD5: CD8C98  		call	catch
4FD8: CD8C98  		call	catch
4FDB: CD8C98  		call	catch
4FDE: CD8C98  		call	catch
4FE1: CD8C98  		call	catch
4FE4: CD8C98  		call	catch
4FE7: CD8C98  		call	catch
4FEA: CD8C98  		call	catch
4FED: CD8C98  		call	catch
4FF0: CD8C98  		call	catch
4FF3: CD8C98  		call	catch
4FF6: CD8C98  		call	catch
4FF9: CD8C98  		call	catch
4FFC: CD8C98  		call	catch
4FFF: CD8C98  		call	catch
5002: CD8C98  		call	catch
5005: CD8C98  		call	catch
5008: CD8C98  		call	catch
500B: CD8C98  		call	catch
500E: CD8C98  		call	catch
5011: CD8C98  		call	catch
5014: CD8C98  		call	catch
5017: CD8C98  		call	catch
501A: CD8C98  		call	catch
501D: CD8C98  		call	catch
5020: CD8C98  		call	catch
5023: CD8C98  		call	catch
5026: CD8C98  		call	catch
5029: CD8C98  		call	catch
502C: CD8C98  		call	catch
502F: CD8C98  		call	catch
5032: CD8C98  		call	catch
5035: CD8C98  		call	catch
5038: CD8C98  		call	catch
503B: CD8C98  		call	catch
503E: CD8C98  		call	catch
5041: CD8C98  		call	catch
5044: CD8C98  		call	catch
5047: CD8C98  		call	catch
504A: CD8C98  		call	catch
504D: CD8C98  		call	catch
5050: CD8C98  		call	catch
5053: CD8C98  		call	catch
5056: CD8C98  		call	catch
5059: CD8C98  		call	catch
505C: CD8C98  		call	catch
505F: CD8C98  		call	catch
5062: CD8C98  		call	catch
5065: CD8C98  		call	catch
5068: CD8C98  		call	catch
506B: CD8C98  		call	catch
506E: CD8C98  		call	catch
5071: CD8C98  		call	catch
5074: CD8C98  		call	catch
5077: CD8C98  		call	catch
507A: CD8C98  		call	catch
507D: CD8C98  		call	catch
5080: CD8C98  		call	catch
5083: CD8C98  		call	catch
5086: CD8C98  		call	catch
5089: CD8C98  		call	catch
508C: CD8C98  		call	catch
508F: CD8C98  		call	catch
5092: CD8C98  		call	catch
5095: CD8C98  		call	catch
5098: CD8C98  		call	catch
509B: CD8C98  		call	catch
509E: CD8C98  		call	catch
50A1: CD8C98  		call	catch
50A4: CD8C98  		call	catch
50A7: CD8C98  		call	catch
50AA: CD8C98  		call	catch
50AD: CD8C98  		call	catch
50B0: CD8C98  		call	catch
50B3: CD8C98  		call	catch
50B6: CD8C98  		call	catch
50B9: CD8C98  		call	catch
50BC: CD8C98  		call	catch
50BF: CD8C98  		call	catch
50C2: CD8C98  		call	catch
50C5: CD8C98  		call	catch
50C8: CD8C98  		call	catch
50CB: CD8C98  		call	catch
50CE: CD8C98  		call	catch
50D1: CD8C98  		call	catch
50D4: CD8C98  		call	catch
50D7: CD8C98  		call	catch
50DA: CD8C98  		call	catch
50DD: CD8C98  		call	catch
50E0: CD8C98  		call	catch
50E3: CD8C98  		call	catch
50E6: CD8C98  		call	catch
50E9: CD8C98  		call	catch
50EC: CD8C98  		call	catch
50EF: CD8C98  		call	catch
50F2: CD8C98  		call	catch
50F5: CD8C98  		call	catch
50F8: CD8C98  		call	catch
50FB: CD8C98  		call	catch
50FE: CD8C98  		call	catch
5101: CD8C98  		call	catch
5104: CD8C98  		call	catch
5107: CD8C98  		call	catch
510A: CD8C98  		call	catch
510D: CD8C98  		call	catch
5110: CD8C98  		call	catch
5113: CD8C98  		call	catch
5116: CD8C98  		call	catch
5119: CD8C98  		call	catch
511C: CD8C98  		call	catch
511F: CD8C98  		call	catch
5122: CD8C98  		call	catch
5125: CD8C98  		call	catch
5128: CD8C98  		call	catch
512B: CD8C98  		call	catch
512E: CD8C98  		call	catch
5131: CD8C98  		call	catch
5134: CD8C98  		call	catch
5137: CD8C98  		call	catch
513A: CD8C98  		call	catch
513D: CD8C98  		call	catch
5140: CD8C98  		call	catch
5143: CD8C98  		call	catch
5146: CD8C98  		call	catch
5149: CD8C98  		call	catch
514C: CD8C98  		call	catch
514F: CD8C98  		call	catch
5152: CD8C98  		call	catch
5155: CD8C98  		call	catch
5158: CD8C98  		call	catch
515B: CD8C98  		call	catch
515E: CD8C98  		call	catch
5161: CD8C98  		call	catch
5164: CD8C98  		call	catch
5167: CD8C98  		call	catch
516A: CD8C98  		call	catch
516D: CD8C98  		call	catch
5170: CD8C98  		call	catch
5173: CD8C98  		call	catch
5176: CD8C98  		call	catch
5179: CD8C98  		call	catch
517C: CD8C98  		call	catch
517F: CD8C98  		call	catch
5182: CD8C98  		call	catch
5185: CD8C98  		call	catch
5188: CD8C98  		call	catch
518B: CD8C98  		call	catch
518E: CD8C98  		call	catch
5191: CD8C98  		call	catch
5194: CD8C98  		call	catch
5197: CD8C98  		call	catch
519A: CD8C98  		call	catch
519D: CD8C98  		call	catch
51A0: CD8C98  		call	catch
51A3: CD8C98  		call	catch
51A6: CD8C98  		call	catch
51A9: CD8C98  		call	catch
51AC: CD8C98  		call	catch
51AF: CD8C98  		call	catch
51B2: CD8C98  		call	catch
51B5: CD8C98  		call	catch
51B8: CD8C98  		call	catch
51BB: CD8C98  		call	catch
51BE: CD8C98  		call	catch
51C1: CD8C98  		call	catch
51C4: CD8C98  		call	catch
51C7: CD8C98  		call	catch
51CA: CD8C98  		call	catch
51CD: CD8C98  		call	catch
51D0: CD8C98  		call	catch
51D3: CD8C98  		call	catch
51D6: CD8C98  		call	catch
51D9: CD8C98  		call	catch
51DC: CD8C98  		call	catch
51DF: CD8C98  		call	catch
51E2: CD8C98  		call	catch
51E5: CD8C98  		call	catch
51E8: CD8C98  		call	catch
51EB: CD8C98  		call	catch
51EE: CD8C98  		call	catch
51F1: CD8C98  		call	catch
51F4: CD8C98  		call	catch
51F7: CD8C98  		call	catch
51FA: CD8C98  		call	catch
51FD: CD8C98  		call	catch
5200: CD8C98  		call	catch
5203: CD8C98  		call	catch
5206: CD8C98  		call	catch
5209: CD8C98  		call	catch
520C: CD8C98  		call	catch
520F: CD8C98  		call	catch
5212: CD8C98  		call	catch
5215: CD8C98  		call	catch
5218: CD8C98  		call	catch
521B: CD8C98  		call	catch
521E: CD8C98  		call	catch
5221: CD8C98  		call	catch
5224: CD8C98  		call	catch
5227: CD8C98  		call	catch
522A: CD8C98  		call	catch
522D: CD8C98  		call	catch
5230: CD8C98  		call	catch
5233: CD8C98  		call	catch
5236: CD8C98  		call	catch
5239: CD8C98  		call	catch
523C: CD8C98  		call	catch
523F: CD8C98  		call	catch
5242: CD8C98  		call	catch
5245: CD8C98  		call	catch
5248: CD8C98  		call	catch
524B: CD8C98  		call	catch
524E: CD8C98  		call	catch
5251: CD8C98  		call	catch
5254: CD8C98  		call	catch
5257: CD8C98  		call	catch
525A: CD8C98  		call	catch
525D: CD8C98  		call	catch
5260: CD8C98  		call	catch
5263: CD8C98  		call	catch
5266: CD8C98  		call	catch
5269: CD8C98  		call	catch
526C: CD8C98  		call	catch
526F: CD8C98  		call	catch
5272: CD8C98  		call	catch
5275: CD8C98  		call	catch
5278: CD8C98  		call	catch
527B: CD8C98  		call	catch
527E: CD8C98  		call	catch
5281: CD8C98  		call	catch
5284: CD8C98  		call	catch
5287: CD8C98  		call	catch
528A: CD8C98  		call	catch
528D: CD8C98  		call	catch
5290: CD8C98  		call	catch
5293: CD8C98  		call	catch
5296: CD8C98  		call	catch
5299: CD8C98  		call	catch
529C: CD8C98  		call	catch
529F: CD8C98  		call	catch
52A2: CD8C98  		call	catch
52A5: CD8C98  		call	catch
52A8: CD8C98  		call	catch
52AB: CD8C98  		call	catch
52AE: CD8C98  		call	catch
52B1: CD8C98  		call	catch
52B4: CD8C98  		call	catch
52B7: CD8C98  		call	catch
52BA: CD8C98  		call	catch
52BD: CD8C98  		call	catch
52C0: CD8C98  		call	catch
52C3: CD8C98  		call	catch
52C6: CD8C98  		call	catch
52C9: CD8C98  		call	catch
52CC: CD8C98  		call	catch
52CF: CD8C98  		call	catch
52D2: CD8C98  		call	catch
52D5: CD8C98  		call	catch
52D8: CD8C98  		call	catch
52DB: CD8C98  		call	catch
52DE: CD8C98  		call	catch
52E1: CD8C98  		call	catch
52E4: CD8C98  		call	catch
52E7: CD8C98  		call	catch
52EA: CD8C98  		call	catch
52ED: CD8C98  		call	catch
52F0: CD8C98  		call	catch
52F3: CD8C98  		call	catch
52F6: CD8C98  		call	catch
52F9: CD8C98  		call	catch
52FC: CD8C98  		call	catch
52FF: CD8C98  		call	catch
5302: CD8C98  		call	catch
5305: CD8C98  		call	catch
5308: CD8C98  		call	catch
530B: CD8C98  		call	catch
530E: CD8C98  		call	catch
5311: CD8C98  		call	catch
5314: CD8C98  		call	catch
5317: CD8C98  		call	catch
531A: CD8C98  		call	catch
531D: CD8C98  		call	catch
5320: CD8C98  		call	catch
5323: CD8C98  		call	catch
5326: CD8C98  		call	catch
5329: CD8C98  		call	catch
532C: CD8C98  		call	catch
532F: CD8C98  		call	catch
5332: CD8C98  		call	catch
5335: CD8C98  		call	catch
5338: CD8C98  		call	catch
533B: CD8C98  		call	catch
533E: CD8C98  		call	catch
5341: CD8C98  		call	catch
5344: CD8C98  		call	catch
5347: CD8C98  		call	catch
534A: CD8C98  		call	catch
534D: CD8C98  		call	catch
5350: CD8C98  		call	catch
5353: CD8C98  		call	catch
5356: CD8C98  		call	catch
5359: CD8C98  		call	catch
535C: CD8C98  		call	catch
535F: CD8C98  		call	catch
5362: CD8C98  		call	catch
5365: CD8C98  		call	catch
5368: CD8C98  		call	catch
536B: CD8C98  		call	catch
536E: CD8C98  		call	catch
5371: CD8C98  		call	catch
5374: CD8C98  		call	catch
5377: CD8C98  		call	catch
537A: CD8C98  		call	catch
537D: CD8C98  		call	catch
5380: CD8C98  		call	catch
5383: CD8C98  		call	catch
5386: CD8C98  		call	catch
5389: CD8C98  		call	catch
538C: CD8C98  		call	catch
538F: CD8C98  		call	catch
5392: CD8C98  		call	catch
5395: CD8C98  		call	catch
5398: CD8C98  		call	catch
539B: CD8C98  		call	catch
539E: CD8C98  		call	catch
53A1: CD8C98  		call	catch
53A4: CD8C98  		call	catch
53A7: CD8C98  		call	catch
53AA: CD8C98  		call	catch
53AD: CD8C98  		call	catch
53B0: CD8C98  		call	catch
53B3: CD8C98  		call	catch
53B6: CD8C98  		call	catch
53B9: CD8C98  		call	catch
53BC: CD8C98  		call	catch
53BF: CD8C98  		call	catch
53C2: CD8C98  		call	catch
53C5: CD8C98  		call	catch
53C8: CD8C98  		call	catch
53CB: CD8C98  		call	catch
53CE: CD8C98  		call	catch
53D1: CD8C98  		call	catch
53D4: CD8C98  		call	catch
53D7: CD8C98  		call	catch
53DA: CD8C98  		call	catch
53DD: CD8C98  		call	catch
53E0: CD8C98  		call	catch
53E3: CD8C98  		call	catch
53E6: CD8C98  		call	catch
53E9: CD8C98  		call	catch
53EC: CD8C98  		call	catch
53EF: CD8C98  		call	catch
53F2: CD8C98  		call	catch
53F5: CD8C98  		call	catch
53F8: CD8C98  		call	catch
53FB: CD8C98  		call	catch
53FE: CD8C98  		call	catch
5401: CD8C98  		call	catch
5404: CD8C98  		call	catch
5407: CD8C98  		call	catch
540A: CD8C98  		call	catch
540D: CD8C98  		call	catch
5410: CD8C98  		call	catch
5413: CD8C98  		call	catch
5416: CD8C98  		call	catch
5419: CD8C98  		call	catch
541C: CD8C98  		call	catch
541F: CD8C98  		call	catch
5422: CD8C98  		call	catch
5425: CD8C98  		call	catch
5428: CD8C98  		call	catch
542B: CD8C98  		call	catch
542E: CD8C98  		call	catch
5431: CD8C98  		call	catch
5434: CD8C98  		call	catch
5437: CD8C98  		call	catch
543A: CD8C98  		call	catch
543D: CD8C98  		call	catch
5440: CD8C98  		call	catch
5443: CD8C98  		call	catch
5446: CD8C98  		call	catch
5449: CD8C98  		call	catch
544C: CD8C98  		call	catch
544F: CD8C98  		call	catch
5452: CD8C98  		call	catch
5455: CD8C98  		call	catch
5458: CD8C98  		call	catch
545B: CD8C98  		call	catch
545E: CD8C98  		call	catch
5461: CD8C98  		call	catch
5464: CD8C98  		call	catch
5467: CD8C98  		call	catch
546A: CD8C98  		call	catch
546D: CD8C98  		call	catch
5470: CD8C98  		call	catch
5473: CD8C98  		call	catch
5476: CD8C98  		call	catch
5479: CD8C98  		call	catch
547C: CD8C98  		call	catch
547F: CD8C98  		call	catch
5482: CD8C98  		call	catch
5485: CD8C98  		call	catch
5488: CD8C98  		call	catch
548B: CD8C98  		call	catch
548E: CD8C98  		call	catch
5491: CD8C98  		call	catch
5494: CD8C98  		call	catch
5497: CD8C98  		call	catch
549A: CD8C98  		call	catch
549D: CD8C98  		call	catch
54A0: CD8C98  		call	catch
54A3: CD8C98  		call	catch
54A6: CD8C98  		call	catch
54A9: CD8C98  		call	catch
54AC: CD8C98  		call	catch
54AF: CD8C98  		call	catch
54B2: CD8C98  		call	catch
54B5: CD8C98  		call	catch
54B8: CD8C98  		call	catch
54BB: CD8C98  		call	catch
54BE: CD8C98  		call	catch
54C1: CD8C98  		call	catch
54C4: CD8C98  		call	catch
54C7: CD8C98  		call	catch
54CA: CD8C98  		call	catch
54CD: CD8C98  		call	catch
54D0: CD8C98  		call	catch
54D3: CD8C98  		call	catch
54D6: CD8C98  		call	catch
54D9: CD8C98  		call	catch
54DC: CD8C98  		call	catch
54DF: CD8C98  		call	catch
54E2: CD8C98  		call	catch
54E5: CD8C98  		call	catch
54E8: CD8C98  		call	catch
54EB: CD8C98  		call	catch
54EE: CD8C98  		call	catch
54F1: CD8C98  		call	catch
54F4: CD8C98  		call	catch
54F7: CD8C98  		call	catch
54FA: CD8C98  		call	catch
54FD: CD8C98  		call	catch
5500: CD8C98  		call	catch
5503: CD8C98  		call	catch
5506: CD8C98  		call	catch
5509: CD8C98  		call	catch
550C: CD8C98  		call	catch
550F: CD8C98  		call	catch
5512: CD8C98  		call	catch
5515: CD8C98  		call	catch
5518: CD8C98  		call	catch
551B: CD8C98  		call	catch
551E: CD8C98  		call	catch
5521: CD8C98  		call	catch
5524: CD8C98  		call	catch
5527: CD8C98  		call	catch
552A: CD8C98  		call	catch
552D: CD8C98  		call	catch
5530: CD8C98  		call	catch
5533: CD8C98  		call	catch
5536: CD8C98  		call	catch
5539: CD8C98  		call	catch
553C: CD8C98  		call	catch
553F: CD8C98  		call	catch
5542: CD8C98  		call	catch
5545: CD8C98  		call	catch
5548: CD8C98  		call	catch
554B: CD8C98  		call	catch
554E: CD8C98  		call	catch
5551: CD8C98  		call	catch
5554: CD8C98  		call	catch
5557: CD8C98  		call	catch
555A: CD8C98  		call	catch
555D: CD8C98  		call	catch
5560: CD8C98  		call	catch
5563: CD8C98  		call	catch
5566: CD8C98  		call	catch
5569: CD8C98  		call	catch
556C: CD8C98  		call	catch
556F: CD8C98  		call	catch
5572: CD8C98  		call	catch
5575: CD8C98  		call	catch
5578: CD8C98  		call	catch
557B: CD8C98  		call	catch
557E: CD8C98  		call	catch
5581: CD8C98  		call	catch
5584: CD8C98  		call	catch
5587: CD8C98  		call	catch
558A: CD8C98  		call	catch
558D: CD8C98  		call	catch
5590: CD8C98  		call	catch
5593: CD8C98  		call	catch
5596: CD8C98  		call	catch
5599: CD8C98  		call	catch
559C: CD8C98  		call	catch
559F: CD8C98  		call	catch
55A2: CD8C98  		call	catch
55A5: CD8C98  		call	catch
55A8: CD8C98  		call	catch
55AB: CD8C98  		call	catch
55AE: CD8C98  		call	catch
55B1: CD8C98  		call	catch
55B4: CD8C98  		call	catch
55B7: CD8C98  		call	catch
55BA: CD8C98  		call	catch
55BD: CD8C98  		call	catch
55C0: CD8C98  		call	catch
55C3: CD8C98  		call	catch
55C6: CD8C98  		call	catch
55C9: CD8C98  		call	catch
55CC: CD8C98  		call	catch
55CF: CD8C98  		call	catch
55D2: CD8C98  		call	catch
55D5: CD8C98  		call	catch
55D8: CD8C98  		call	catch
55DB: CD8C98  		call	catch
55DE: CD8C98  		call	catch
55E1: CD8C98  		call	catch
55E4: CD8C98  		call	catch
55E7: CD8C98  		call	catch
55EA: CD8C98  		call	catch
55ED: CD8C98  		call	catch
55F0: CD8C98  		call	catch
55F3: CD8C98  		call	catch
55F6: CD8C98  		call	catch
55F9: CD8C98  		call	catch
55FC: CD8C98  		call	catch
55FF: CD8C98  		call	catch
5602: CD8C98  		call	catch
5605: CD8C98  		call	catch
5608: CD8C98  		call	catch
560B: CD8C98  		call	catch
560E: CD8C98  		call	catch
5611: CD8C98  		call	catch
5614: CD8C98  		call	catch
5617: CD8C98  		call	catch
561A: CD8C98  		call	catch
561D: CD8C98  		call	catch
5620: CD8C98  		call	catch
5623: CD8C98  		call	catch
5626: CD8C98  		call	catch
5629: CD8C98  		call	catch
562C: CD8C98  		call	catch
562F: CD8C98  		call	catch
5632: CD8C98  		call	catch
5635: CD8C98  		call	catch
5638: CD8C98  		call	catch
563B: CD8C98  		call	catch
563E: CD8C98  		call	catch
5641: CD8C98  		call	catch
5644: CD8C98  		call	catch
5647: CD8C98  		call	catch
564A: CD8C98  		call	catch
564D: CD8C98  		call	catch
5650: CD8C98  		call	catch
5653: CD8C98  		call	catch
5656: CD8C98  		call	catch
5659: CD8C98  		call	catch
565C: CD8C98  		call	catch
565F: CD8C98  		call	catch
5662: CD8C98  		call	catch
5665: CD8C98  		call	catch
5668: CD8C98  		call	catch
566B: CD8C98  		call	catch
566E: CD8C98  		call	catch
5671: CD8C98  		call	catch
5674: CD8C98  		call	catch
5677: CD8C98  		call	catch
567A: CD8C98  		call	catch
567D: CD8C98  		call	catch
5680: CD8C98  		call	catch
5683: CD8C98  		call	catch
5686: CD8C98  		call	catch
5689: CD8C98  		call	catch
568C: CD8C98  		call	catch
568F: CD8C98  		call	catch
5692: CD8C98  		call	catch
5695: CD8C98  		call	catch
5698: CD8C98  		call	catch
569B: CD8C98  		call	catch
569E: CD8C98  		call	catch
56A1: CD8C98  		call	catch
56A4: CD8C98  		call	catch
56A7: CD8C98  		call	catch
56AA: CD8C98  		call	catch
56AD: CD8C98  		call	catch
56B0: CD8C98  		call	catch
56B3: CD8C98  		call	catch
56B6: CD8C98  		call	catch
56B9: CD8C98  		call	catch
56BC: CD8C98  		call	catch
56BF: CD8C98  		call	catch
56C2: CD8C98  		call	catch
56C5: CD8C98  		call	catch
56C8: CD8C98  		call	catch
56CB: CD8C98  		call	catch
56CE: CD8C98  		call	catch
56D1: CD8C98  		call	catch
56D4: CD8C98  		call	catch
56D7: CD8C98  		call	catch
56DA: CD8C98  		call	catch
56DD: CD8C98  		call	catch
56E0: CD8C98  		call	catch
56E3: CD8C98  		call	catch
56E6: CD8C98  		call	catch
56E9: CD8C98  		call	catch
56EC: CD8C98  		call	catch
56EF: CD8C98  		call	catch
56F2: CD8C98  		call	catch
56F5: CD8C98  		call	catch
56F8: CD8C98  		call	catch
56FB: CD8C98  		call	catch
56FE: CD8C98  		call	catch
5701: CD8C98  		call	catch
5704: CD8C98  		call	catch
5707: CD8C98  		call	catch
570A: CD8C98  		call	catch
570D: CD8C98  		call	catch
5710: CD8C98  		call	catch
5713: CD8C98  		call	catch
5716: CD8C98  		call	catch
5719: CD8C98  		call	catch
571C: CD8C98  		call	catch
571F: CD8C98  		call	catch
5722: CD8C98  		call	catch
5725: CD8C98  		call	catch
5728: CD8C98  		call	catch
572B: CD8C98  		call	catch
572E: CD8C98  		call	catch
5731: CD8C98  		call	catch
5734: CD8C98  		call	catch
5737: CD8C98  		call	catch
573A: CD8C98  		call	catch
573D: CD8C98  		call	catch
5740: CD8C98  		call	catch
5743: CD8C98  		call	catch
5746: CD8C98  		call	catch
5749: CD8C98  		call	catch
574C: CD8C98  		call	catch
574F: CD8C98  		call	catch
5752: CD8C98  		call	catch
5755: CD8C98  		call	catch
5758: CD8C98  		call	catch
575B: CD8C98  		call	catch
575E: CD8C98  		call	catch
5761: CD8C98  		call	catch
5764: CD8C98  		call	catch
5767: CD8C98  		call	catch
576A: CD8C98  		call	catch
576D: CD8C98  		call	catch
5770: CD8C98  		call	catch
5773: CD8C98  		call	catch
5776: CD8C98  		call	catch
5779: CD8C98  		call	catch
577C: CD8C98  		call	catch
577F: CD8C98  		call	catch
5782: CD8C98  		call	catch
5785: CD8C98  		call	catch
5788: CD8C98  		call	catch
578B: CD8C98  		call	catch
578E: CD8C98  		call	catch
5791: CD8C98  		call	catch
5794: CD8C98  		call	catch
5797: CD8C98  		call	catch
579A: CD8C98  		call	catch
579D: CD8C98  		call	catch
57A0: CD8C98  		call	catch
57A3: CD8C98  		call	catch
57A6: CD8C98  		call	catch
57A9: CD8C98  		call	catch
57AC: CD8C98  		call	catch
57AF: CD8C98  		call	catch
57B2: CD8C98  		call	catch
57B5: CD8C98  		call	catch
57B8: CD8C98  		call	catch
57BB: CD8C98  		call	catch
57BE: CD8C98  		call	catch
57C1: CD8C98  		call	catch
57C4: CD8C98  		call	catch
57C7: CD8C98  		call	catch
57CA: CD8C98  		call	catch
57CD: CD8C98  		call	catch
57D0: CD8C98  		call	catch
57D3: CD8C98  		call	catch
57D6: CD8C98  		call	catch
57D9: CD8C98  		call	catch
57DC: CD8C98  		call	catch
57DF: CD8C98  		call	catch
57E2: CD8C98  		call	catch
57E5: CD8C98  		call	catch
57E8: CD8C98  		call	catch
57EB: CD8C98  		call	catch
57EE: CD8C98  		call	catch
57F1: CD8C98  		call	catch
57F4: CD8C98  		call	catch
57F7: CD8C98  		call	catch
57FA: CD8C98  		call	catch
57FD: CD8C98  		call	catch
5800: CD8C98  		call	catch
5803: CD8C98  		call	catch
5806: CD8C98  		call	catch
5809: CD8C98  		call	catch
580C: CD8C98  		call	catch
580F: CD8C98  		call	catch
5812: CD8C98  		call	catch
5815: CD8C98  		call	catch
5818: CD8C98  		call	catch
581B: CD8C98  		call	catch
581E: CD8C98  		call	catch
5821: CD8C98  		call	catch
5824: CD8C98  		call	catch
5827: CD8C98  		call	catch
582A: CD8C98  		call	catch
582D: CD8C98  		call	catch
5830: CD8C98  		call	catch
5833: CD8C98  		call	catch
5836: CD8C98  		call	catch
5839: CD8C98  		call	catch
583C: CD8C98  		call	catch
583F: CD8C98  		call	catch
5842: CD8C98  		call	catch
5845: CD8C98  		call	catch
5848: CD8C98  		call	catch
584B: CD8C98  		call	catch
584E: CD8C98  		call	catch
5851: CD8C98  		call	catch
5854: CD8C98  		call	catch
5857: CD8C98  		call	catch
585A: CD8C98  		call	catch
585D: CD8C98  		call	catch
5860: CD8C98  		call	catch
5863: CD8C98  		call	catch
5866: CD8C98  		call	catch
5869: CD8C98  		call	catch
586C: CD8C98  		call	catch
586F: CD8C98  		call	catch
5872: CD8C98  		call	catch
5875: CD8C98  		call	catch
5878: CD8C98  		call	catch
587B: CD8C98  		call	catch
587E: CD8C98  		call	catch
5881: CD8C98  		call	catch
5884: CD8C98  		call	catch
5887: CD8C98  		call	catch
588A: CD8C98  		call	catch
588D: CD8C98  		call	catch
5890: CD8C98  		call	catch
5893: CD8C98  		call	catch
5896: CD8C98  		call	catch
5899: CD8C98  		call	catch
589C: CD8C98  		call	catch
589F: CD8C98  		call	catch
58A2: CD8C98  		call	catch
58A5: CD8C98  		call	catch
58A8: CD8C98  		call	catch
58AB: CD8C98  		call	catch
58AE: CD8C98  		call	catch
58B1: CD8C98  		call	catch
58B4: CD8C98  		call	catch
58B7: CD8C98  		call	catch
58BA: CD8C98  		call	catch
58BD: CD8C98  		call	catch
58C0: CD8C98  		call	catch
58C3: CD8C98  		call	catch
58C6: CD8C98  		call	catch
58C9: CD8C98  		call	catch
58CC: CD8C98  		call	catch
58CF: CD8C98  		call	catch
58D2: CD8C98  		call	catch
58D5: CD8C98  		call	catch
58D8: CD8C98  		call	catch
58DB: CD8C98  		call	catch
58DE: CD8C98  		call	catch
58E1: CD8C98  		call	catch
58E4: CD8C98  		call	catch
58E7: CD8C98  		call	catch
58EA: CD8C98  		call	catch
58ED: CD8C98  		call	catch
58F0: CD8C98  		call	catch
58F3: CD8C98  		call	catch
58F6: CD8C98  		call	catch
58F9: CD8C98  		call	catch
58FC: CD8C98  		call	catch
58FF: CD8C98  		call	catch
5902: CD8C98  		call	catch
5905: CD8C98  		call	catch
5908: CD8C98  		call	catch
590B: CD8C98  		call	catch
590E: CD8C98  		call	catch
5911: CD8C98  		call	catch
5914: CD8C98  		call	catch
5917: CD8C98  		call	catch
591A: CD8C98  		call	catch
591D: CD8C98  		call	catch
5920: CD8C98  		call	catch
5923: CD8C98  		call	catch
5926: CD8C98  		call	catch
5929: CD8C98  		call	catch
592C: CD8C98  		call	catch
592F: CD8C98  		call	catch
5932: CD8C98  		call	catch
5935: CD8C98  		call	catch
5938: CD8C98  		call	catch
593B: CD8C98  		call	catch
593E: CD8C98  		call	catch
5941: CD8C98  		call	catch
5944: CD8C98  		call	catch
5947: CD8C98  		call	catch
594A: CD8C98  		call	catch
594D: CD8C98  		call	catch
5950: CD8C98  		call	catch
5953: CD8C98  		call	catch
5956: CD8C98  		call	catch
5959: CD8C98  		call	catch
595C: CD8C98  		call	catch
595F: CD8C98  		call	catch
5962: CD8C98  		call	catch
5965: CD8C98  		call	catch
5968: CD8C98  		call	catch
596B: CD8C98  		call	catch
596E: CD8C98  		call	catch
5971: CD8C98  		call	catch
5974: CD8C98  		call	catch
5977: CD8C98  		call	catch
597A: CD8C98  		call	catch
597D: CD8C98  		call	catch
5980: CD8C98  		call	catch
5983: CD8C98  		call	catch
5986: CD8C98  		call	catch
5989: CD8C98  		call	catch
598C: CD8C98  		call	catch
598F: CD8C98  		call	catch
5992: CD8C98  		call	catch
5995: CD8C98  		call	catch
5998: CD8C98  		call	catch
599B: CD8C98  		call	catch
599E: CD8C98  		call	catch
59A1: CD8C98  		call	catch
59A4: CD8C98  		call	catch
59A7: CD8C98  		call	catch
59AA: CD8C98  		call	catch
59AD: CD8C98  		call	catch
59B0: CD8C98  		call	catch
59B3: CD8C98  		call	catch
59B6: CD8C98  		call	catch
59B9: CD8C98  		call	catch
59BC: CD8C98  		call	catch
59BF: CD8C98  		call	catch
59C2: CD8C98  		call	catch
59C5: CD8C98  		call	catch
59C8: CD8C98  		call	catch
59CB: CD8C98  		call	catch
59CE: CD8C98  		call	catch
59D1: CD8C98  		call	catch
59D4: CD8C98  		call	catch
59D7: CD8C98  		call	catch
59DA: CD8C98  		call	catch
59DD: CD8C98  		call	catch
59E0: CD8C98  		call	catch
59E3: CD8C98  		call	catch
59E6: CD8C98  		call	catch
59E9: CD8C98  		call	catch
59EC: CD8C98  		call	catch
59EF: CD8C98  		call	catch
59F2: CD8C98  		call	catch
59F5: CD8C98  		call	catch
59F8: CD8C98  		call	catch
59FB: CD8C98  		call	catch
59FE: CD8C98  		call	catch
5A01: CD8C98  		call	catch
5A04: CD8C98  		call	catch
5A07: CD8C98  		call	catch
5A0A: CD8C98  		call	catch
5A0D: CD8C98  		call	catch
5A10: CD8C98  		call	catch
5A13: CD8C98  		call	catch
5A16: CD8C98  		call	catch
5A19: CD8C98  		call	catch
5A1C: CD8C98  		call	catch
5A1F: CD8C98  		call	catch
5A22: CD8C98  		call	catch
5A25: CD8C98  		call	catch
5A28: CD8C98  		call	catch
5A2B: CD8C98  		call	catch
5A2E: CD8C98  		call	catch
5A31: CD8C98  		call	catch
5A34: CD8C98  		call	catch
5A37: CD8C98  		call	catch
5A3A: CD8C98  		call	catch
5A3D: CD8C98  		call	catch
5A40: CD8C98  		call	catch
5A43: CD8C98  		call	catch
5A46: CD8C98  		call	catch
5A49: CD8C98  		call	catch
5A4C: CD8C98  		call	catch
5A4F: CD8C98  		call	catch
5A52: CD8C98  		call	catch
5A55: CD8C98  		call	catch
5A58: CD8C98  		call	catch
5A5B: CD8C98  		call	catch
5A5E: CD8C98  		call	catch
5A61: CD8C98  		call	catch
5A64: CD8C98  		call	catch
5A67: CD8C98  		call	catch
5A6A: CD8C98  		call	catch
5A6D: CD8C98  		call	catch
5A70: CD8C98  		call	catch
5A73: CD8C98  		call	catch
5A76: CD8C98  		call	catch
5A79: CD8C98  		call	catch
5A7C: CD8C98  		call	catch
5A7F: CD8C98  		call	catch
5A82: CD8C98  		call	catch
5A85: CD8C98  		call	catch
5A88: CD8C98  		call	catch
5A8B: CD8C98  		call	catch
5A8E: CD8C98  		call	catch
5A91: CD8C98  		call	catch
5A94: CD8C98  		call	catch
5A97: CD8C98  		call	catch
5A9A: CD8C98  		call	catch
5A9D: CD8C98  		call	catch
5AA0: CD8C98  		call	catch
5AA3: CD8C98  		call	catch
5AA6: CD8C98  		call	catch
5AA9: CD8C98  		call	catch
5AAC: CD8C98  		call	catch
5AAF: CD8C98  		call	catch
5AB2: CD8C98  		call	catch
5AB5: CD8C98  		call	catch
5AB8: CD8C98  		call	catch
5ABB: CD8C98  		call	catch
5ABE: CD8C98  		call	catch
5AC1: CD8C98  		call	catch
5AC4: CD8C98  		call	catch
5AC7: CD8C98  		call	catch
5ACA: CD8C98  		call	catch
5ACD: CD8C98  		call	catch
5AD0: CD8C98  		call	catch
5AD3: CD8C98  		call	catch
5AD6: CD8C98  		call	catch
5AD9: CD8C98  		call	catch
5ADC: CD8C98  		call	catch
5ADF: CD8C98  		call	catch
5AE2: CD8C98  		call	catch
5AE5: CD8C98  		call	catch
5AE8: CD8C98  		call	catch
5AEB: CD8C98  		call	catch
5AEE: CD8C98  		call	catch
5AF1: CD8C98  		call	catch
5AF4: CD8C98  		call	catch
5AF7: CD8C98  		call	catch
5AFA: CD8C98  		call	catch
5AFD: CD8C98  		call	catch
5B00: CD8C98  		call	catch
5B03: CD8C98  		call	catch
5B06: CD8C98  		call	catch
5B09: CD8C98  		call	catch
5B0C: CD8C98  		call	catch
5B0F: CD8C98  		call	catch
5B12: CD8C98  		call	catch
5B15: CD8C98  		call	catch
5B18: CD8C98  		call	catch
5B1B: CD8C98  		call	catch
5B1E: CD8C98  		call	catch
5B21: CD8C98  		call	catch
5B24: CD8C98  		call	catch
5B27: CD8C98  		call	catch
5B2A: CD8C98  		call	catch
5B2D: CD8C98  		call	catch
5B30: CD8C98  		call	catch
5B33: CD8C98  		call	catch
5B36: CD8C98  		call	catch
5B39: CD8C98  		call	catch
5B3C: CD8C98  		call	catch
5B3F: CD8C98  		call	catch
5B42: CD8C98  		call	catch
5B45: CD8C98  		call	catch
5B48: CD8C98  		call	catch
5B4B: CD8C98  		call	catch
5B4E: CD8C98  		call	catch
5B51: CD8C98  		call	catch
5B54: CD8C98  		call	catch
5B57: CD8C98  		call	catch
5B5A: CD8C98  		call	catch
5B5D: CD8C98  		call	catch
5B60: CD8C98  		call	catch
5B63: CD8C98  		call	catch
5B66: CD8C98  		call	catch
5B69: CD8C98  		call	catch
5B6C: CD8C98  		call	catch
5B6F: CD8C98  		call	catch
5B72: CD8C98  		call	catch
5B75: CD8C98  		call	catch
5B78: CD8C98  		call	catch
5B7B: CD8C98  		call	catch
5B7E: CD8C98  		call	catch
5B81: CD8C98  		call	catch
5B84: CD8C98  		call	catch
5B87: CD8C98  		call	catch
5B8A: CD8C98  		call	catch
5B8D: CD8C98  		call	catch
5B90: CD8C98  		call	catch
5B93: CD8C98  		call	catch
5B96: CD8C98  		call	catch
5B99: CD8C98  		call	catch
5B9C: CD8C98  		call	catch
5B9F: CD8C98  		call	catch
5BA2: CD8C98  		call	catch
5BA5: CD8C98  		call	catch
5BA8: CD8C98  		call	catch
5BAB: CD8C98  		call	catch
5BAE: CD8C98  		call	catch
5BB1: CD8C98  		call	catch
5BB4: CD8C98  		call	catch
5BB7: CD8C98  		call	catch
5BBA: CD8C98  		call	catch
5BBD: CD8C98  		call	catch
5BC0: CD8C98  		call	catch
5BC3: CD8C98  		call	catch
5BC6: CD8C98  		call	catch
5BC9: CD8C98  		call	catch
5BCC: CD8C98  		call	catch
5BCF: CD8C98  		call	catch
5BD2: CD8C98  		call	catch
5BD5: CD8C98  		call	catch
5BD8: CD8C98  		call	catch
5BDB: CD8C98  		call	catch
5BDE: CD8C98  		call	catch
5BE1: CD8C98  		call	catch
5BE4: CD8C98  		call	catch
5BE7: CD8C98  		call	catch
5BEA: CD8C98  		call	catch
5BED: CD8C98  		call	catch
5BF0: CD8C98  		call	catch
5BF3: CD8C98  		call	catch
5BF6: CD8C98  		call	catch
5BF9: CD8C98  		call	catch
5BFC: CD8C98  		call	catch
5BFF: CD8C98  		call	catch
5C02: CD8C98  		call	catch
5C05: CD8C98  		call	catch
5C08: CD8C98  		call	catch
5C0B: CD8C98  		call	catch
5C0E: CD8C98  		call	catch
5C11: CD8C98  		call	catch
5C14: CD8C98  		call	catch
5C17: CD8C98  		call	catch
5C1A: CD8C98  		call	catch
5C1D: CD8C98  		call	catch
5C20: CD8C98  		call	catch
5C23: CD8C98  		call	catch
5C26: CD8C98  		call	catch
5C29: CD8C98  		call	catch
5C2C: CD8C98  		call	catch
5C2F: CD8C98  		call	catch
5C32: CD8C98  		call	catch
5C35: CD8C98  		call	catch
5C38: CD8C98  		call	catch
5C3B: CD8C98  		call	catch
5C3E: CD8C98  		call	catch
5C41: CD8C98  		call	catch
5C44: CD8C98  		call	catch
5C47: CD8C98  		call	catch
5C4A: CD8C98  		call	catch
5C4D: CD8C98  		call	catch
5C50: CD8C98  		call	catch
5C53: CD8C98  		call	catch
5C56: CD8C98  		call	catch
5C59: CD8C98  		call	catch
5C5C: CD8C98  		call	catch
5C5F: CD8C98  		call	catch
5C62: CD8C98  		call	catch
5C65: CD8C98  		call	catch
5C68: CD8C98  		call	catch
5C6B: CD8C98  		call	catch
5C6E: CD8C98  		call	catch
5C71: CD8C98  		call	catch
5C74: CD8C98  		call	catch
5C77: CD8C98  		call	catch
5C7A: CD8C98  		call	catch
5C7D: CD8C98  		call	catch
5C80: CD8C98  		call	catch
5C83: CD8C98  		call	catch
5C86: CD8C98  		call	catch
5C89: CD8C98  		call	catch
5C8C: CD8C98  		call	catch
5C8F: CD8C98  		call	catch
5C92: CD8C98  		call	catch
5C95: CD8C98  		call	catch
5C98: CD8C98  		call	catch
5C9B: CD8C98  		call	catch
5C9E: CD8C98  		call	catch
5CA1: CD8C98  		call	catch
5CA4: CD8C98  		call	catch
5CA7: CD8C98  		call	catch
5CAA: CD8C98  		call	catch
5CAD: CD8C98  		call	catch
5CB0: CD8C98  		call	catch
5CB3: CD8C98  		call	catch
5CB6: CD8C98  		call	catch
5CB9: CD8C98  		call	catch
5CBC: CD8C98  		call	catch
5CBF: CD8C98  		call	catch
5CC2: CD8C98  		call	catch
5CC5: CD8C98  		call	catch
5CC8: CD8C98  		call	catch
5CCB: CD8C98  		call	catch
5CCE: CD8C98  		call	catch
5CD1: CD8C98  		call	catch
5CD4: CD8C98  		call	catch
5CD7: CD8C98  		call	catch
5CDA: CD8C98  		call	catch
5CDD: CD8C98  		call	catch
5CE0: CD8C98  		call	catch
5CE3: CD8C98  		call	catch
5CE6: CD8C98  		call	catch
5CE9: CD8C98  		call	catch
5CEC: CD8C98  		call	catch
5CEF: CD8C98  		call	catch
5CF2: CD8C98  		call	catch
5CF5: CD8C98  		call	catch
5CF8: CD8C98  		call	catch
5CFB: CD8C98  		call	catch
5CFE: CD8C98  		call	catch
5D01: CD8C98  		call	catch
5D04: CD8C98  		call	catch
5D07: CD8C98  		call	catch
5D0A: CD8C98  		call	catch
5D0D: CD8C98  		call	catch
5D10: CD8C98  		call	catch
5D13: CD8C98  		call	catch
5D16: CD8C98  		call	catch
5D19: CD8C98  		call	catch
5D1C: CD8C98  		call	catch
5D1F: CD8C98  		call	catch
5D22: CD8C98  		call	catch
5D25: CD8C98  		call	catch
5D28: CD8C98  		call	catch
5D2B: CD8C98  		call	catch
5D2E: CD8C98  		call	catch
5D31: CD8C98  		call	catch
5D34: CD8C98  		call	catch
5D37: CD8C98  		call	catch
5D3A: CD8C98  		call	catch
5D3D: CD8C98  		call	catch
5D40: CD8C98  		call	catch
5D43: CD8C98  		call	catch
5D46: CD8C98  		call	catch
5D49: CD8C98  		call	catch
5D4C: CD8C98  		call	catch
5D4F: CD8C98  		call	catch
5D52: CD8C98  		call	catch
5D55: CD8C98  		call	catch
5D58: CD8C98  		call	catch
5D5B: CD8C98  		call	catch
5D5E: CD8C98  		call	catch
5D61: CD8C98  		call	catch
5D64: CD8C98  		call	catch
5D67: CD8C98  		call	catch
5D6A: CD8C98  		call	catch
5D6D: CD8C98  		call	catch
5D70: CD8C98  		call	catch
5D73: CD8C98  		call	catch
5D76: CD8C98  		call	catch
5D79: CD8C98  		call	catch
5D7C: CD8C98  		call	catch
5D7F: CD8C98  		call	catch
5D82: CD8C98  		call	catch
5D85: CD8C98  		call	catch
5D88: CD8C98  		call	catch
5D8B: CD8C98  		call	catch
5D8E: CD8C98  		call	catch
5D91: CD8C98  		call	catch
5D94: CD8C98  		call	catch
5D97: CD8C98  		call	catch
5D9A: CD8C98  		call	catch
5D9D: CD8C98  		call	catch
5DA0: CD8C98  		call	catch
5DA3: CD8C98  		call	catch
5DA6: CD8C98  		call	catch
5DA9: CD8C98  		call	catch
5DAC: CD8C98  		call	catch
5DAF: CD8C98  		call	catch
5DB2: CD8C98  		call	catch
5DB5: CD8C98  		call	catch
5DB8: CD8C98  		call	catch
5DBB: CD8C98  		call	catch
5DBE: CD8C98  		call	catch
5DC1: CD8C98  		call	catch
5DC4: CD8C98  		call	catch
5DC7: CD8C98  		call	catch
5DCA: CD8C98  		call	catch
5DCD: CD8C98  		call	catch
5DD0: CD8C98  		call	catch
5DD3: CD8C98  		call	catch
5DD6: CD8C98  		call	catch
5DD9: CD8C98  		call	catch
5DDC: CD8C98  		call	catch
5DDF: CD8C98  		call	catch
5DE2: CD8C98  		call	catch
5DE5: CD8C98  		call	catch
5DE8: CD8C98  		call	catch
5DEB: CD8C98  		call	catch
5DEE: CD8C98  		call	catch
5DF1: CD8C98  		call	catch
5DF4: CD8C98  		call	catch
5DF7: CD8C98  		call	catch
5DFA: CD8C98  		call	catch
5DFD: CD8C98  		call	catch
5E00: CD8C98  		call	catch
5E03: CD8C98  		call	catch
5E06: CD8C98  		call	catch
5E09: CD8C98  		call	catch
5E0C: CD8C98  		call	catch
5E0F: CD8C98  		call	catch
5E12: CD8C98  		call	catch
5E15: CD8C98  		call	catch
5E18: CD8C98  		call	catch
5E1B: CD8C98  		call	catch
5E1E: CD8C98  		call	catch
5E21: CD8C98  		call	catch
5E24: CD8C98  		call	catch
5E27: CD8C98  		call	catch
5E2A: CD8C98  		call	catch
5E2D: CD8C98  		call	catch
5E30: CD8C98  		call	catch
5E33: CD8C98  		call	catch
5E36: CD8C98  		call	catch
5E39: CD8C98  		call	catch
5E3C: CD8C98  		call	catch
5E3F: CD8C98  		call	catch
5E42: CD8C98  		call	catch
5E45: CD8C98  		call	catch
5E48: CD8C98  		call	catch
5E4B: CD8C98  		call	catch
5E4E: CD8C98  		call	catch
5E51: CD8C98  		call	catch
5E54: CD8C98  		call	catch
5E57: CD8C98  		call	catch
5E5A: CD8C98  		call	catch
5E5D: CD8C98  		call	catch
5E60: CD8C98  		call	catch
5E63: CD8C98  		call	catch
5E66: CD8C98  		call	catch
5E69: CD8C98  		call	catch
5E6C: CD8C98  		call	catch
5E6F: CD8C98  		call	catch
5E72: CD8C98  		call	catch
5E75: CD8C98  		call	catch
5E78: CD8C98  		call	catch
5E7B: CD8C98  		call	catch
5E7E: CD8C98  		call	catch
5E81: CD8C98  		call	catch
5E84: CD8C98  		call	catch
5E87: CD8C98  		call	catch
5E8A: CD8C98  		call	catch
5E8D: CD8C98  		call	catch
5E90: CD8C98  		call	catch
5E93: CD8C98  		call	catch
5E96: CD8C98  		call	catch
5E99: CD8C98  		call	catch
5E9C: CD8C98  		call	catch
5E9F: CD8C98  		call	catch
5EA2: CD8C98  		call	catch
5EA5: CD8C98  		call	catch
5EA8: CD8C98  		call	catch
5EAB: CD8C98  		call	catch
5EAE: CD8C98  		call	catch
5EB1: CD8C98  		call	catch
5EB4: CD8C98  		call	catch
5EB7: CD8C98  		call	catch
5EBA: CD8C98  		call	catch
5EBD: CD8C98  		call	catch
5EC0: CD8C98  		call	catch
5EC3: CD8C98  		call	catch
5EC6: CD8C98  		call	catch
5EC9: CD8C98  		call	catch
5ECC: CD8C98  		call	catch
5ECF: CD8C98  		call	catch
5ED2: CD8C98  		call	catch
5ED5: CD8C98  		call	catch
5ED8: CD8C98  		call	catch
5EDB: CD8C98  		call	catch
5EDE: CD8C98  		call	catch
5EE1: CD8C98  		call	catch
5EE4: CD8C98  		call	catch
5EE7: CD8C98  		call	catch
5EEA: CD8C98  		call	catch
5EED: CD8C98  		call	catch
5EF0: CD8C98  		call	catch
5EF3: CD8C98  		call	catch
5EF6: CD8C98  		call	catch
5EF9: CD8C98  		call	catch
5EFC: CD8C98  		call	catch
5EFF: CD8C98  		call	catch
5F02: CD8C98  		call	catch
5F05: CD8C98  		call	catch
5F08: CD8C98  		call	catch
5F0B: CD8C98  		call	catch
5F0E: CD8C98  		call	catch
5F11: CD8C98  		call	catch
5F14: CD8C98  		call	catch
5F17: CD8C98  		call	catch
5F1A: CD8C98  		call	catch
5F1D: CD8C98  		call	catch
5F20: CD8C98  		call	catch
5F23: CD8C98  		call	catch
5F26: CD8C98  		call	catch
5F29: CD8C98  		call	catch
5F2C: CD8C98  		call	catch
5F2F: CD8C98  		call	catch
5F32: CD8C98  		call	catch
5F35: CD8C98  		call	catch
5F38: CD8C98  		call	catch
5F3B: CD8C98  		call	catch
5F3E: CD8C98  		call	catch
5F41: CD8C98  		call	catch
5F44: CD8C98  		call	catch
5F47: CD8C98  		call	catch
5F4A: CD8C98  		call	catch
5F4D: CD8C98  		call	catch
5F50: CD8C98  		call	catch
5F53: CD8C98  		call	catch
5F56: CD8C98  			call	catch
5F59: CD8C98  		call	catch
5F5C: CD8C98  		call	catch
5F5F: CD8C98  		call	catch
5F62: CD8C98  		call	catch
5F65: CD8C98  		call	catch
5F68: CD8C98  		call	catch
5F6B: CD8C98  		call	catch
5F6E: CD8C98  		call	catch
5F71: CD8C98  		call	catch
5F74: CD8C98  		call	catch
5F77: CD8C98  		call	catch
5F7A: CD8C98  		call	catch
5F7D: CD8C98  		call	catch
5F80: CD8C98  		call	catch
5F83: CD8C98  		call	catch
5F86: CD8C98  		call	catch
5F89: CD8C98  		call	catch
5F8C: CD8C98  		call	catch
5F8F: CD8C98  		call	catch
5F92: CD8C98  		call	catch
5F95: CD8C98  		call	catch
5F98: CD8C98  		call	catch
5F9B: CD8C98  		call	catch
5F9E: CD8C98  		call	catch
5FA1: CD8C98  		call	catch
5FA4: CD8C98  		call	catch
5FA7: CD8C98  		call	catch
5FAA: CD8C98  		call	catch
5FAD: CD8C98  		call	catch
5FB0: CD8C98  		call	catch
5FB3: CD8C98  		call	catch
5FB6: CD8C98  		call	catch
5FB9: CD8C98  		call	catch
5FBC: CD8C98  		call	catch
5FBF: CD8C98  		call	catch
5FC2: CD8C98  		call	catch
5FC5: CD8C98  		call	catch
5FC8: CD8C98  		call	catch
5FCB: CD8C98  		call	catch
5FCE: CD8C98  		call	catch
5FD1: CD8C98  		call	catch
5FD4: CD8C98  		call	catch
5FD7: CD8C98  		call	catch
5FDA: CD8C98  		call	catch
5FDD: CD8C98  		call	catch
5FE0: CD8C98  		call	catch
5FE3: CD8C98  		call	catch
5FE6: CD8C98  		call	catch
5FE9: CD8C98  		call	catch
5FEC: CD8C98  		call	catch
5FEF: CD8C98  		call	catch
5FF2: CD8C98  		call	catch
5FF5: CD8C98  		call	catch
5FF8: CD8C98  		call	catch
5FFB: CD8C98  		call	catch
5FFE: CD8C98  		call	catch
6001: CD8C98  		call	catch
6004: CD8C98  		call	catch
6007: CD8C98  		call	catch
600A: CD8C98  		call	catch
600D: CD8C98  		call	catch
6010: CD8C98  		call	catch
6013: CD8C98  		call	catch
6016: CD8C98  		call	catch
6019: CD8C98  		call	catch
601C: CD8C98  		call	catch
601F: CD8C98  		call	catch
6022: CD8C98  		call	catch
6025: CD8C98  		call	catch
6028: CD8C98  		call	catch
602B: CD8C98  		call	catch
602E: CD8C98  		call	catch
6031: CD8C98  		call	catch
6034: CD8C98  		call	catch
6037: CD8C98  		call	catch
603A: CD8C98  		call	catch
603D: CD8C98  		call	catch
6040: CD8C98  		call	catch
6043: CD8C98  		call	catch
6046: CD8C98  		call	catch
6049: CD8C98  		call	catch
604C: CD8C98  		call	catch
604F: CD8C98  		call	catch
6052: CD8C98  		call	catch
6055: CD8C98  		call	catch
6058: CD8C98  		call	catch
605B: CD8C98  		call	catch
605E: CD8C98  		call	catch
6061: CD8C98  		call	catch
6064: CD8C98  		call	catch
6067: CD8C98  		call	catch
606A: CD8C98  		call	catch
606D: CD8C98  		call	catch
6070: CD8C98  		call	catch
6073: CD8C98  		call	catch
6076: CD8C98  		call	catch
6079: CD8C98  		call	catch
607C: CD8C98  		call	catch
607F: CD8C98  		call	catch
6082: CD8C98  		call	catch
6085: CD8C98  		call	catch
6088: CD8C98  		call	catch
608B: CD8C98  		call	catch
608E: CD8C98  		call	catch
6091: CD8C98  		call	catch
6094: CD8C98  		call	catch
6097: CD8C98  		call	catch
609A: CD8C98  		call	catch
609D: CD8C98  		call	catch
60A0: CD8C98  		call	catch
60A3: CD8C98  		call	catch
60A6: CD8C98  		call	catch
60A9: CD8C98  		call	catch
60AC: CD8C98  		call	catch
60AF: CD8C98  		call	catch
60B2: CD8C98  		call	catch
60B5: CD8C98  		call	catch
60B8: CD8C98  		call	catch
60BB: CD8C98  		call	catch
60BE: CD8C98  		call	catch
60C1: CD8C98  		call	catch
60C4: CD8C98  		call	catch
60C7: CD8C98  		call	catch
60CA: CD8C98  		call	catch
60CD: CD8C98  		call	catch
60D0: CD8C98  		call	catch
60D3: CD8C98  		call	catch
60D6: CD8C98  		call	catch
60D9: CD8C98  		call	catch
60DC: CD8C98  		call	catch
60DF: CD8C98  		call	catch
60E2: CD8C98  		call	catch
60E5: CD8C98  		call	catch
60E8: CD8C98  		call	catch
60EB: CD8C98  		call	catch
60EE: CD8C98  		call	catch
60F1: CD8C98  		call	catch
60F4: CD8C98  		call	catch
60F7: CD8C98  		call	catch
60FA: CD8C98  		call	catch
60FD: CD8C98  		call	catch
6100: CD8C98  		call	catch
6103: CD8C98  		call	catch
6106: CD8C98  		call	catch
6109: CD8C98  		call	catch
610C: CD8C98  		call	catch
610F: CD8C98  		call	catch
6112: CD8C98  		call	catch
6115: CD8C98  		call	catch
6118: CD8C98  		call	catch
611B: CD8C98  		call	catch
611E: CD8C98  		call	catch
6121: CD8C98  		call	catch
6124: CD8C98  		call	catch
6127: CD8C98  		call	catch
612A: CD8C98  		call	catch
612D: CD8C98  		call	catch
6130: CD8C98  		call	catch
6133: CD8C98  		call	catch
6136: CD8C98  		call	catch
6139: CD8C98  		call	catch
613C: CD8C98  		call	catch
613F: CD8C98  		call	catch
6142: CD8C98  		call	catch
6145: CD8C98  		call	catch
6148: CD8C98  		call	catch
614B: CD8C98  		call	catch
614E: CD8C98  		call	catch
6151: CD8C98  		call	catch
6154: CD8C98  		call	catch
6157: CD8C98  		call	catch
615A: CD8C98  		call	catch
615D: CD8C98  		call	catch
6160: CD8C98  		call	catch
6163: CD8C98  		call	catch
6166: CD8C98  		call	catch
6169: CD8C98  		call	catch
616C: CD8C98  		call	catch
616F: CD8C98  		call	catch
6172: CD8C98  		call	catch
6175: CD8C98  		call	catch
6178: CD8C98  		call	catch
617B: CD8C98  		call	catch
617E: CD8C98  		call	catch
6181: CD8C98  		call	catch
6184: CD8C98  		call	catch
6187: CD8C98  		call	catch
618A: CD8C98  		call	catch
618D: CD8C98  		call	catch
6190: CD8C98  		call	catch
6193: CD8C98  		call	catch
6196: CD8C98  		call	catch
6199: CD8C98  		call	catch
619C: CD8C98  		call	catch
619F: CD8C98  		call	catch
61A2: CD8C98  		call	catch
61A5: CD8C98  		call	catch
61A8: CD8C98  		call	catch
61AB: CD8C98  		call	catch
61AE: CD8C98  		call	catch
61B1: CD8C98  		call	catch
61B4: CD8C98  		call	catch
61B7: CD8C98  		call	catch
61BA: CD8C98  		call	catch
61BD: CD8C98  		call	catch
61C0: CD8C98  		call	catch
61C3: CD8C98  		call	catch
61C6: CD8C98  		call	catch
61C9: CD8C98  		call	catch
61CC: CD8C98  		call	catch
61CF: CD8C98  		call	catch
61D2: CD8C98  		call	catch
61D5: CD8C98  		call	catch
61D8: CD8C98  		call	catch
61DB: CD8C98  		call	catch
61DE: CD8C98  		call	catch
61E1: CD8C98  		call	catch
61E4: CD8C98  		call	catch
61E7: CD8C98  		call	catch
61EA: CD8C98  		call	catch
61ED: CD8C98  		call	catch
61F0: CD8C98  		call	catch
61F3: CD8C98  		call	catch
61F6: CD8C98  		call	catch
61F9: CD8C98  		call	catch
61FC: CD8C98  		call	catch
61FF: CD8C98  		call	catch
6202: CD8C98  		call	catch
6205: CD8C98  		call	catch
6208: CD8C98  		call	catch
620B: CD8C98  		call	catch
620E: CD8C98  		call	catch
6211: CD8C98  		call	catch
6214: CD8C98  		call	catch
6217: CD8C98  		call	catch
621A: CD8C98  		call	catch
621D: CD8C98  		call	catch
6220: CD8C98  		call	catch
6223: CD8C98  		call	catch
6226: CD8C98  		call	catch
6229: CD8C98  		call	catch
622C: CD8C98  		call	catch
622F: CD8C98  		call	catch
6232: CD8C98  		call	catch
6235: CD8C98  		call	catch
6238: CD8C98  		call	catch
623B: CD8C98  		call	catch
623E: CD8C98  		call	catch
6241: CD8C98  		call	catch
6244: CD8C98  		call	catch
6247: CD8C98  		call	catch
624A: CD8C98  		call	catch
624D: CD8C98  		call	catch
6250: CD8C98  		call	catch
6253: CD8C98  		call	catch
6256: CD8C98  		call	catch
6259: CD8C98  		call	catch
625C: CD8C98  		call	catch
625F: CD8C98  		call	catch
6262: CD8C98  		call	catch
6265: CD8C98  		call	catch
6268: CD8C98  		call	catch
626B: CD8C98  		call	catch
626E: CD8C98  		call	catch
6271: CD8C98  		call	catch
6274: CD8C98  		call	catch
6277: CD8C98  		call	catch
627A: CD8C98  		call	catch
627D: CD8C98  		call	catch
6280: CD8C98  		call	catch
6283: CD8C98  		call	catch
6286: CD8C98  		call	catch
6289: CD8C98  		call	catch
628C: CD8C98  		call	catch
628F: CD8C98  		call	catch
6292: CD8C98  		call	catch
6295: CD8C98  		call	catch
6298: CD8C98  		call	catch
629B: CD8C98  		call	catch
629E: CD8C98  		call	catch
62A1: CD8C98  		call	catch
62A4: CD8C98  		call	catch
62A7: CD8C98  		call	catch
62AA: CD8C98  		call	catch
62AD: CD8C98  		call	catch
62B0: CD8C98  		call	catch
62B3: CD8C98  		call	catch
62B6: CD8C98  		call	catch
62B9: CD8C98  		call	catch
62BC: CD8C98  		call	catch
62BF: CD8C98  		call	catch
62C2: CD8C98  		call	catch
62C5: CD8C98  		call	catch
62C8: CD8C98  		call	catch
62CB: CD8C98  		call	catch
62CE: CD8C98  		call	catch
62D1: CD8C98  		call	catch
62D4: CD8C98  		call	catch
62D7: CD8C98  		call	catch
62DA: CD8C98  		call	catch
62DD: CD8C98  		call	catch
62E0: CD8C98  		call	catch
62E3: CD8C98  		call	catch
62E6: CD8C98  		call	catch
62E9: CD8C98  		call	catch
62EC: CD8C98  		call	catch
62EF: CD8C98  		call	catch
62F2: CD8C98  		call	catch
62F5: CD8C98  		call	catch
62F8: CD8C98  		call	catch
62FB: CD8C98  		call	catch
62FE: CD8C98  		call	catch
6301: CD8C98  		call	catch
6304: CD8C98  		call	catch
6307: CD8C98  		call	catch
630A: CD8C98  		call	catch
630D: CD8C98  		call	catch
6310: CD8C98  		call	catch
6313: CD8C98  		call	catch
6316: CD8C98  		call	catch
6319: CD8C98  		call	catch
631C: CD8C98  		call	catch
631F: CD8C98  		call	catch
6322: CD8C98  		call	catch
6325: CD8C98  		call	catch
6328: CD8C98  		call	catch
632B: CD8C98  		call	catch
632E: CD8C98  		call	catch
6331: CD8C98  		call	catch
6334: CD8C98  		call	catch
6337: CD8C98  		call	catch
633A: CD8C98  		call	catch
633D: CD8C98  		call	catch
6340: CD8C98  		call	catch
6343: CD8C98  		call	catch
6346: CD8C98  		call	catch
6349: CD8C98  		call	catch
634C: CD8C98  		call	catch
634F: CD8C98  		call	catch
6352: CD8C98  		call	catch
6355: CD8C98  		call	catch
6358: CD8C98  		call	catch
635B: CD8C98  		call	catch
635E: CD8C98  		call	catch
6361: CD8C98  		call	catch
6364: CD8C98  		call	catch
6367: CD8C98  		call	catch
636A: CD8C98  		call	catch
636D: CD8C98  		call	catch
6370: CD8C98  		call	catch
6373: CD8C98  		call	catch
6376: CD8C98  		call	catch
6379: CD8C98  		call	catch
637C: CD8C98  		call	catch
637F: CD8C98  		call	catch
6382: CD8C98  		call	catch
6385: CD8C98  		call	catch
6388: CD8C98  		call	catch
638B: CD8C98  		call	catch
638E: CD8C98  		call	catch
6391: CD8C98  		call	catch
6394: CD8C98  		call	catch
6397: CD8C98  		call	catch
639A: CD8C98  		call	catch
639D: CD8C98  		call	catch
63A0: CD8C98  		call	catch
63A3: CD8C98  		call	catch
63A6: CD8C98  		call	catch
63A9: CD8C98  		call	catch
63AC: CD8C98  		call	catch
63AF: CD8C98  		call	catch
63B2: CD8C98  		call	catch
63B5: CD8C98  		call	catch
63B8: CD8C98  		call	catch
63BB: CD8C98  		call	catch
63BE: CD8C98  		call	catch
63C1: CD8C98  		call	catch
63C4: CD8C98  		call	catch
63C7: CD8C98  		call	catch
63CA: CD8C98  		call	catch
63CD: CD8C98  		call	catch
63D0: CD8C98  		call	catch
63D3: CD8C98  		call	catch
63D6: CD8C98  		call	catch
63D9: CD8C98  		call	catch
63DC: CD8C98  		call	catch
63DF: CD8C98  		call	catch
63E2: CD8C98  		call	catch
63E5: CD8C98  		call	catch
63E8: CD8C98  		call	catch
63EB: CD8C98  		call	catch
63EE: CD8C98  		call	catch
63F1: CD8C98  		call	catch
63F4: CD8C98  		call	catch
63F7: CD8C98  		call	catch
63FA: CD8C98  		call	catch
63FD: CD8C98  		call	catch
6400: CD8C98  		call	catch
6403: CD8C98  		call	catch
6406: CD8C98  		call	catch
6409: CD8C98  		call	catch
640C: CD8C98  		call	catch
640F: CD8C98  		call	catch
6412: CD8C98  		call	catch
6415: CD8C98  		call	catch
6418: CD8C98  		call	catch
641B: CD8C98  		call	catch
641E: CD8C98  		call	catch
6421: CD8C98  		call	catch
6424: CD8C98  		call	catch
6427: CD8C98  		call	catch
642A: CD8C98  		call	catch
642D: CD8C98  		call	catch
6430: CD8C98  		call	catch
6433: CD8C98  		call	catch
6436: CD8C98  		call	catch
6439: CD8C98  		call	catch
643C: CD8C98  		call	catch
643F: CD8C98  		call	catch
6442: CD8C98  		call	catch
6445: CD8C98  		call	catch
6448: CD8C98  		call	catch
644B: CD8C98  		call	catch
644E: CD8C98  		call	catch
6451: CD8C98  		call	catch
6454: CD8C98  		call	catch
6457: CD8C98  		call	catch
645A: CD8C98  		call	catch
645D: CD8C98  		call	catch
6460: CD8C98  		call	catch
6463: CD8C98  		call	catch
6466: CD8C98  		call	catch
6469: CD8C98  		call	catch
646C: CD8C98  		call	catch
646F: CD8C98  		call	catch
6472: CD8C98  		call	catch
6475: CD8C98  		call	catch
6478: CD8C98  		call	catch
647B: CD8C98  		call	catch
647E: CD8C98  		call	catch
6481: CD8C98  		call	catch
6484: CD8C98  		call	catch
6487: CD8C98  		call	catch
648A: CD8C98  		call	catch
648D: CD8C98  		call	catch
6490: CD8C98  		call	catch
6493: CD8C98  		call	catch
6496: CD8C98  		call	catch
6499: CD8C98  		call	catch
649C: CD8C98  		call	catch
649F: CD8C98  		call	catch
64A2: CD8C98  		call	catch
64A5: CD8C98  		call	catch
64A8: CD8C98  		call	catch
64AB: CD8C98  		call	catch
64AE: CD8C98  		call	catch
64B1: CD8C98  		call	catch
64B4: CD8C98  		call	catch
64B7: CD8C98  		call	catch
64BA: CD8C98  		call	catch
64BD: CD8C98  		call	catch
64C0: CD8C98  		call	catch
64C3: CD8C98  		call	catch
64C6: CD8C98  		call	catch
64C9: CD8C98  		call	catch
64CC: CD8C98  		call	catch
64CF: CD8C98  		call	catch
64D2: CD8C98  		call	catch
64D5: CD8C98  		call	catch
64D8: CD8C98  		call	catch
64DB: CD8C98  		call	catch
64DE: CD8C98  		call	catch
64E1: CD8C98  		call	catch
64E4: CD8C98  		call	catch
64E7: CD8C98  		call	catch
64EA: CD8C98  		call	catch
64ED: CD8C98  		call	catch
64F0: CD8C98  		call	catch
64F3: CD8C98  		call	catch
64F6: CD8C98  		call	catch
64F9: CD8C98  		call	catch
64FC: CD8C98  		call	catch
64FF: CD8C98  		call	catch
6502: CD8C98  		call	catch
6505: CD8C98  		call	catch
6508: CD8C98  		call	catch
650B: CD8C98  		call	catch
650E: CD8C98  		call	catch
6511: CD8C98  		call	catch
6514: CD8C98  		call	catch
6517: CD8C98  		call	catch
651A: CD8C98  		call	catch
651D: CD8C98  		call	catch
6520: CD8C98  		call	catch
6523: CD8C98  		call	catch
6526: CD8C98  		call	catch
6529: CD8C98  		call	catch
652C: CD8C98  		call	catch
652F: CD8C98  		call	catch
6532: CD8C98  		call	catch
6535: CD8C98  		call	catch
6538: CD8C98  		call	catch
653B: CD8C98  		call	catch
653E: CD8C98  		call	catch
6541: CD8C98  		call	catch
6544: CD8C98  		call	catch
6547: CD8C98  		call	catch
654A: CD8C98  		call	catch
654D: CD8C98  		call	catch
6550: CD8C98  		call	catch
6553: CD8C98  		call	catch
6556: CD8C98  		call	catch
6559: CD8C98  		call	catch
655C: CD8C98  		call	catch
655F: CD8C98  		call	catch
6562: CD8C98  		call	catch
6565: CD8C98  		call	catch
6568: CD8C98  		call	catch
656B: CD8C98  		call	catch
656E: CD8C98  		call	catch
6571: CD8C98  		call	catch
6574: CD8C98  		call	catch
6577: CD8C98  		call	catch
657A: CD8C98  		call	catch
657D: CD8C98  		call	catch
6580: CD8C98  		call	catch
6583: CD8C98  		call	catch
6586: CD8C98  		call	catch
6589: CD8C98  		call	catch
658C: CD8C98  		call	catch
658F: CD8C98  		call	catch
6592: CD8C98  		call	catch
6595: CD8C98  		call	catch
6598: CD8C98  		call	catch
659B: CD8C98  		call	catch
659E: CD8C98  		call	catch
65A1: CD8C98  		call	catch
65A4: CD8C98  		call	catch
65A7: CD8C98  		call	catch
65AA: CD8C98  		call	catch
65AD: CD8C98  		call	catch
65B0: CD8C98  		call	catch
65B3: CD8C98  		call	catch
65B6: CD8C98  		call	catch
65B9: CD8C98  		call	catch
65BC: CD8C98  		call	catch
65BF: CD8C98  		call	catch
65C2: CD8C98  		call	catch
65C5: CD8C98  		call	catch
65C8: CD8C98  		call	catch
65CB: CD8C98  		call	catch
65CE: CD8C98  		call	catch
65D1: CD8C98  		call	catch
65D4: CD8C98  		call	catch
65D7: CD8C98  		call	catch
65DA: CD8C98  		call	catch
65DD: CD8C98  		call	catch
65E0: CD8C98  		call	catch
65E3: CD8C98  		call	catch
65E6: CD8C98  		call	catch
65E9: CD8C98  		call	catch
65EC: CD8C98  		call	catch
65EF: CD8C98  		call	catch
65F2: CD8C98  		call	catch
65F5: CD8C98  		call	catch
65F8: CD8C98  		call	catch
65FB: CD8C98  		call	catch
65FE: CD8C98  		call	catch
6601: CD8C98  		call	catch
6604: CD8C98  		call	catch
6607: CD8C98  		call	catch
660A: CD8C98  		call	catch
660D: CD8C98  		call	catch
6610: CD8C98  		call	catch
6613: CD8C98  		call	catch
6616: CD8C98  		call	catch
6619: CD8C98  		call	catch
661C: CD8C98  		call	catch
661F: CD8C98  		call	catch
6622: CD8C98  		call	catch
6625: CD8C98  		call	catch
6628: CD8C98  		call	catch
662B: CD8C98  		call	catch
662E: CD8C98  		call	catch
6631: CD8C98  		call	catch
6634: CD8C98  		call	catch
6637: CD8C98  		call	catch
663A: CD8C98  		call	catch
663D: CD8C98  		call	catch
6640: CD8C98  		call	catch
6643: CD8C98  		call	catch
6646: CD8C98  		call	catch
6649: CD8C98  		call	catch
664C: CD8C98  		call	catch
664F: CD8C98  		call	catch
6652: CD8C98  		call	catch
6655: CD8C98  		call	catch
6658: CD8C98  		call	catch
665B: CD8C98  		call	catch
665E: CD8C98  		call	catch
6661: CD8C98  		call	catch
6664: CD8C98  		call	catch
6667: CD8C98  		call	catch
666A: CD8C98  		call	catch
666D: CD8C98  		call	catch
6670: CD8C98  		call	catch
6673: CD8C98  		call	catch
6676: CD8C98  		call	catch
6679: CD8C98  		call	catch
667C: CD8C98  		call	catch
667F: CD8C98  		call	catch
6682: CD8C98  		call	catch
6685: CD8C98  		call	catch
6688: CD8C98  		call	catch
668B: CD8C98  		call	catch
668E: CD8C98  		call	catch
6691: CD8C98  		call	catch
6694: CD8C98  		call	catch
6697: CD8C98  		call	catch
669A: CD8C98  		call	catch
669D: CD8C98  		call	catch
66A0: CD8C98  		call	catch
66A3: CD8C98  		call	catch
66A6: CD8C98  		call	catch
66A9: CD8C98  		call	catch
66AC: CD8C98  		call	catch
66AF: CD8C98  		call	catch
66B2: CD8C98  		call	catch
66B5: CD8C98  		call	catch
66B8: CD8C98  		call	catch
66BB: CD8C98  		call	catch
66BE: CD8C98  		call	catch
66C1: CD8C98  		call	catch
66C4: CD8C98  		call	catch
66C7: CD8C98  		call	catch
66CA: CD8C98  		call	catch
66CD: CD8C98  		call	catch
66D0: CD8C98  		call	catch
66D3: CD8C98  		call	catch
66D6: CD8C98  		call	catch
66D9: CD8C98  		call	catch
66DC: CD8C98  		call	catch
66DF: CD8C98  		call	catch
66E2: CD8C98  		call	catch
66E5: CD8C98  		call	catch
66E8: CD8C98  		call	catch
66EB: CD8C98  		call	catch
66EE: CD8C98  		call	catch
66F1: CD8C98  		call	catch
66F4: CD8C98  		call	catch
66F7: CD8C98  		call	catch
66FA: CD8C98  		call	catch
66FD: CD8C98  		call	catch
6700: CD8C98  		call	catch
6703: CD8C98  		call	catch
6706: CD8C98  		call	catch
6709: CD8C98  		call	catch
670C: CD8C98  		call	catch
670F: CD8C98  		call	catch
6712: CD8C98  		call	catch
6715: CD8C98  		call	catch
6718: CD8C98  		call	catch
671B: CD8C98  		call	catch
671E: CD8C98  		call	catch
6721: CD8C98  		call	catch
6724: CD8C98  		call	catch
6727: CD8C98  		call	catch
672A: CD8C98  		call	catch
672D: CD8C98  		call	catch
6730: CD8C98  		call	catch
6733: CD8C98  		call	catch
6736: CD8C98  		call	catch
6739: CD8C98  		call	catch
673C: CD8C98  		call	catch
673F: CD8C98  		call	catch
6742: CD8C98  		call	catch
6745: CD8C98  		call	catch
6748: CD8C98  		call	catch
674B: CD8C98  		call	catch
674E: CD8C98  		call	catch
6751: CD8C98  		call	catch
6754: CD8C98  		call	catch
6757: CD8C98  		call	catch
675A: CD8C98  		call	catch
675D: CD8C98  		call	catch
6760: CD8C98  		call	catch
6763: CD8C98  		call	catch
6766: CD8C98  		call	catch
6769: CD8C98  		call	catch
676C: CD8C98  		call	catch
676F: CD8C98  		call	catch
6772: CD8C98  		call	catch
6775: CD8C98  		call	catch
6778: CD8C98  		call	catch
677B: CD8C98  		call	catch
677E: CD8C98  		call	catch
6781: CD8C98  		call	catch
6784: CD8C98  		call	catch
6787: CD8C98  		call	catch
678A: CD8C98  		call	catch
678D: CD8C98  		call	catch
6790: CD8C98  		call	catch
6793: CD8C98  		call	catch
6796: CD8C98  		call	catch
6799: CD8C98  		call	catch
679C: CD8C98  		call	catch
679F: CD8C98  		call	catch
67A2: CD8C98  		call	catch
67A5: CD8C98  		call	catch
67A8: CD8C98  		call	catch
67AB: CD8C98  		call	catch
67AE: CD8C98  		call	catch
67B1: CD8C98  		call	catch
67B4: CD8C98  		call	catch
67B7: CD8C98  		call	catch
67BA: CD8C98  		call	catch
67BD: CD8C98  		call	catch
67C0: CD8C98  		call	catch
67C3: CD8C98  		call	catch
67C6: CD8C98  		call	catch
67C9: CD8C98  		call	catch
67CC: CD8C98  		call	catch
67CF: CD8C98  		call	catch
67D2: CD8C98  		call	catch
67D5: CD8C98  		call	catch
67D8: CD8C98  		call	catch
67DB: CD8C98  		call	catch
67DE: CD8C98  		call	catch
67E1: CD8C98  		call	catch
67E4: CD8C98  		call	catch
67E7: CD8C98  		call	catch
67EA: CD8C98  		call	catch
67ED: CD8C98  		call	catch
67F0: CD8C98  		call	catch
67F3: CD8C98  		call	catch
67F6: CD8C98  		call	catch
67F9: CD8C98  		call	catch
67FC: CD8C98  		call	catch
67FF: CD8C98  		call	catch
6802: CD8C98  		call	catch
6805: CD8C98  		call	catch
6808: CD8C98  		call	catch
680B: CD8C98  		call	catch
680E: CD8C98  		call	catch
6811: CD8C98  		call	catch
6814: CD8C98  		call	catch
6817: CD8C98  		call	catch
681A: CD8C98  		call	catch
681D: CD8C98  		call	catch
6820: CD8C98  		call	catch
6823: CD8C98  		call	catch
6826: CD8C98  		call	catch
6829: CD8C98  		call	catch
682C: CD8C98  		call	catch
682F: CD8C98  		call	catch
6832: CD8C98  		call	catch
6835: CD8C98  		call	catch
6838: CD8C98  		call	catch
683B: CD8C98  		call	catch
683E: CD8C98  		call	catch
6841: CD8C98  		call	catch
6844: CD8C98  		call	catch
6847: CD8C98  		call	catch
684A: CD8C98  		call	catch
684D: CD8C98  		call	catch
6850: CD8C98  		call	catch
6853: CD8C98  		call	catch
6856: CD8C98  		call	catch
6859: CD8C98  		call	catch
685C: CD8C98  		call	catch
685F: CD8C98  		call	catch
6862: CD8C98  		call	catch
6865: CD8C98  		call	catch
6868: CD8C98  		call	catch
686B: CD8C98  		call	catch
686E: CD8C98  		call	catch
6871: CD8C98  		call	catch
6874: CD8C98  		call	catch
6877: CD8C98  		call	catch
687A: CD8C98  		call	catch
687D: CD8C98  		call	catch
6880: CD8C98  		call	catch
6883: CD8C98  		call	catch
6886: CD8C98  		call	catch
6889: CD8C98  		call	catch
688C: CD8C98  		call	catch
688F: CD8C98  		call	catch
6892: CD8C98  		call	catch
6895: CD8C98  		call	catch
6898: CD8C98  		call	catch
689B: CD8C98  		call	catch
689E: CD8C98  		call	catch
68A1: CD8C98  		call	catch
68A4: CD8C98  		call	catch
68A7: CD8C98  		call	catch
68AA: CD8C98  		call	catch
68AD: CD8C98  		call	catch
68B0: CD8C98  		call	catch
68B3: CD8C98  		call	catch
68B6: CD8C98  		call	catch
68B9: CD8C98  		call	catch
68BC: CD8C98  		call	catch
68BF: CD8C98  		call	catch
68C2: CD8C98  		call	catch
68C5: CD8C98  		call	catch
68C8: CD8C98  		call	catch
68CB: CD8C98  		call	catch
68CE: CD8C98  		call	catch
68D1: CD8C98  		call	catch
68D4: CD8C98  		call	catch
68D7: CD8C98  		call	catch
68DA: CD8C98  		call	catch
68DD: CD8C98  		call	catch
68E0: CD8C98  		call	catch
68E3: CD8C98  		call	catch
68E6: CD8C98  		call	catch
68E9: CD8C98  		call	catch
68EC: CD8C98  		call	catch
68EF: CD8C98  		call	catch
68F2: CD8C98  		call	catch
68F5: CD8C98  		call	catch
68F8: CD8C98  		call	catch
68FB: CD8C98  		call	catch
68FE: CD8C98  		call	catch
6901: CD8C98  		call	catch
6904: CD8C98  		call	catch
6907: CD8C98  		call	catch
690A: CD8C98  		call	catch
690D: CD8C98  		call	catch
6910: CD8C98  		call	catch
6913: CD8C98  		call	catch
6916: CD8C98  		call	catch
6919: CD8C98  		call	catch
691C: CD8C98  		call	catch
691F: CD8C98  		call	catch
6922: CD8C98  		call	catch
6925: CD8C98  		call	catch
6928: CD8C98  		call	catch
692B: CD8C98  		call	catch
692E: CD8C98  		call	catch
6931: CD8C98  		call	catch
6934: CD8C98  		call	catch
6937: CD8C98  		call	catch
693A: CD8C98  		call	catch
693D: CD8C98  		call	catch
6940: CD8C98  		call	catch
6943: CD8C98  		call	catch
6946: CD8C98  		call	catch
6949: CD8C98  		call	catch
694C: CD8C98  		call	catch
694F: CD8C98  		call	catch
6952: CD8C98  		call	catch
6955: CD8C98  		call	catch
6958: CD8C98  		call	catch
695B: CD8C98  		call	catch
695E: CD8C98  		call	catch
6961: CD8C98  		call	catch
6964: CD8C98  		call	catch
6967: CD8C98  		call	catch
696A: CD8C98  		call	catch
696D: CD8C98  		call	catch
6970: CD8C98  		call	catch
6973: CD8C98  		call	catch
6976: CD8C98  		call	catch
6979: CD8C98  		call	catch
697C: CD8C98  		call	catch
697F: CD8C98  		call	catch
6982: CD8C98  		call	catch
6985: CD8C98  		call	catch
6988: CD8C98  		call	catch
698B: CD8C98  		call	catch
698E: CD8C98  		call	catch
6991: CD8C98  		call	catch
6994: CD8C98  		call	catch
6997: CD8C98  		call	catch
699A: CD8C98  		call	catch
699D: CD8C98  		call	catch
69A0: CD8C98  		call	catch
69A3: CD8C98  		call	catch
69A6: CD8C98  		call	catch
69A9: CD8C98  		call	catch
69AC: CD8C98  		call	catch
69AF: CD8C98  		call	catch
69B2: CD8C98  		call	catch
69B5: CD8C98  		call	catch
69B8: CD8C98  		call	catch
69BB: CD8C98  		call	catch
69BE: CD8C98  		call	catch
69C1: CD8C98  		call	catch
69C4: CD8C98  		call	catch
69C7: CD8C98  		call	catch
69CA: CD8C98  		call	catch
69CD: CD8C98  		call	catch
69D0: CD8C98  		call	catch
69D3: CD8C98  		call	catch
69D6: CD8C98  		call	catch
69D9: CD8C98  		call	catch
69DC: CD8C98  		call	catch
69DF: CD8C98  		call	catch
69E2: CD8C98  		call	catch
69E5: CD8C98  		call	catch
69E8: CD8C98  		call	catch
69EB: CD8C98  		call	catch
69EE: CD8C98  		call	catch
69F1: CD8C98  		call	catch
69F4: CD8C98  		call	catch
69F7: CD8C98  		call	catch
69FA: CD8C98  		call	catch
69FD: CD8C98  		call	catch
6A00: CD8C98  		call	catch
6A03: CD8C98  		call	catch
6A06: CD8C98  		call	catch
6A09: CD8C98  		call	catch
6A0C: CD8C98  		call	catch
6A0F: CD8C98  		call	catch
6A12: CD8C98  		call	catch
6A15: CD8C98  		call	catch
6A18: CD8C98  		call	catch
6A1B: CD8C98  		call	catch
6A1E: CD8C98  		call	catch
6A21: CD8C98  		call	catch
6A24: CD8C98  		call	catch
6A27: CD8C98  		call	catch
6A2A: CD8C98  		call	catch
6A2D: CD8C98  		call	catch
6A30: CD8C98  		call	catch
6A33: CD8C98  		call	catch
6A36: CD8C98  		call	catch
6A39: CD8C98  		call	catch
6A3C: CD8C98  		call	catch
6A3F: CD8C98  		call	catch
6A42: CD8C98  		call	catch
6A45: CD8C98  		call	catch
6A48: CD8C98  		call	catch
6A4B: CD8C98  		call	catch
6A4E: CD8C98  		call	catch
6A51: CD8C98  		call	catch
6A54: CD8C98  		call	catch
6A57: CD8C98  		call	catch
6A5A: CD8C98  		call	catch
6A5D: CD8C98  		call	catch
6A60: CD8C98  		call	catch
6A63: CD8C98  		call	catch
6A66: CD8C98  		call	catch
6A69: CD8C98  		call	catch
6A6C: CD8C98  		call	catch
6A6F: CD8C98  		call	catch
6A72: CD8C98  		call	catch
6A75: CD8C98  		call	catch
6A78: CD8C98  		call	catch
6A7B: CD8C98  		call	catch
6A7E: CD8C98  		call	catch
6A81: CD8C98  		call	catch
6A84: CD8C98  		call	catch
6A87: CD8C98  		call	catch
6A8A: CD8C98  		call	catch
6A8D: CD8C98  		call	catch
6A90: CD8C98  		call	catch
6A93: CD8C98  		call	catch
6A96: CD8C98  		call	catch
6A99: CD8C98  		call	catch
6A9C: CD8C98  		call	catch
6A9F: CD8C98  		call	catch
6AA2: CD8C98  		call	catch
6AA5: CD8C98  		call	catch
6AA8: CD8C98  		call	catch
6AAB: CD8C98  		call	catch
6AAE: CD8C98  		call	catch
6AB1: CD8C98  		call	catch
6AB4: CD8C98  		call	catch
6AB7: CD8C98  		call	catch
6ABA: CD8C98  		call	catch
6ABD: CD8C98  		call	catch
6AC0: CD8C98  		call	catch
6AC3: CD8C98  		call	catch
6AC6: CD8C98  		call	catch
6AC9: CD8C98  		call	catch
6ACC: CD8C98  		call	catch
6ACF: CD8C98  		call	catch
6AD2: CD8C98  		call	catch
6AD5: CD8C98  		call	catch
6AD8: CD8C98  		call	catch
6ADB: CD8C98  		call	catch
6ADE: CD8C98  		call	catch
6AE1: CD8C98  		call	catch
6AE4: CD8C98  		call	catch
6AE7: CD8C98  		call	catch
6AEA: CD8C98  		call	catch
6AED: CD8C98  		call	catch
6AF0: CD8C98  		call	catch
6AF3: CD8C98  		call	catch
6AF6: CD8C98  		call	catch
6AF9: CD8C98  		call	catch
6AFC: CD8C98  		call	catch
6AFF: CD8C98  		call	catch
6B02: CD8C98  		call	catch
6B05: CD8C98  		call	catch
6B08: CD8C98  		call	catch
6B0B: CD8C98  		call	catch
6B0E: CD8C98  		call	catch
6B11: CD8C98  		call	catch
6B14: CD8C98  		call	catch
6B17: CD8C98  		call	catch
6B1A: CD8C98  		call	catch
6B1D: CD8C98  		call	catch
6B20: CD8C98  		call	catch
6B23: CD8C98  		call	catch
6B26: CD8C98  		call	catch
6B29: CD8C98  		call	catch
6B2C: CD8C98  		call	catch
6B2F: CD8C98  		call	catch
6B32: CD8C98  		call	catch
6B35: CD8C98  		call	catch
6B38: CD8C98  		call	catch
6B3B: CD8C98  		call	catch
6B3E: CD8C98  		call	catch
6B41: CD8C98  		call	catch
6B44: CD8C98  		call	catch
6B47: CD8C98  		call	catch
6B4A: CD8C98  		call	catch
6B4D: CD8C98  		call	catch
6B50: CD8C98  		call	catch
6B53: CD8C98  		call	catch
6B56: CD8C98  		call	catch
6B59: CD8C98  		call	catch
6B5C: CD8C98  		call	catch
6B5F: CD8C98  		call	catch
6B62: CD8C98  		call	catch
6B65: CD8C98  		call	catch
6B68: CD8C98  		call	catch
6B6B: CD8C98  		call	catch
6B6E: CD8C98  		call	catch
6B71: CD8C98  		call	catch
6B74: CD8C98  		call	catch
6B77: CD8C98  		call	catch
6B7A: CD8C98  		call	catch
6B7D: CD8C98  		call	catch
6B80: CD8C98  		call	catch
6B83: CD8C98  		call	catch
6B86: CD8C98  		call	catch
6B89: CD8C98  		call	catch
6B8C: CD8C98  		call	catch
6B8F: CD8C98  		call	catch
6B92: CD8C98  		call	catch
6B95: CD8C98  		call	catch
6B98: CD8C98  		call	catch
6B9B: CD8C98  		call	catch
6B9E: CD8C98  		call	catch
6BA1: CD8C98  		call	catch
6BA4: CD8C98  		call	catch
6BA7: CD8C98  		call	catch
6BAA: CD8C98  		call	catch
6BAD: CD8C98  		call	catch
6BB0: CD8C98  		call	catch
6BB3: CD8C98  		call	catch
6BB6: CD8C98  		call	catch
6BB9: CD8C98  		call	catch
6BBC: CD8C98  		call	catch
6BBF: CD8C98  		call	catch
6BC2: CD8C98  		call	catch
6BC5: CD8C98  		call	catch
6BC8: CD8C98  		call	catch
6BCB: CD8C98  		call	catch
6BCE: CD8C98  		call	catch
6BD1: CD8C98  		call	catch
6BD4: CD8C98  		call	catch
6BD7: CD8C98  		call	catch
6BDA: CD8C98  		call	catch
6BDD: CD8C98  		call	catch
6BE0: CD8C98  		call	catch
6BE3: CD8C98  		call	catch
6BE6: CD8C98  		call	catch
6BE9: CD8C98  		call	catch
6BEC: CD8C98  		call	catch
6BEF: CD8C98  		call	catch
6BF2: CD8C98  		call	catch
6BF5: CD8C98  		call	catch
6BF8: CD8C98  		call	catch
6BFB: CD8C98  		call	catch
6BFE: CD8C98  		call	catch
6C01: CD8C98  		call	catch
6C04: CD8C98  		call	catch
6C07: CD8C98  		call	catch
6C0A: CD8C98  		call	catch
6C0D: CD8C98  		call	catch
6C10: CD8C98  		call	catch
6C13: CD8C98  		call	catch
6C16: CD8C98  		call	catch
6C19: CD8C98  		call	catch
6C1C: CD8C98  		call	catch
6C1F: CD8C98  		call	catch
6C22: CD8C98  		call	catch
6C25: CD8C98  		call	catch
6C28: CD8C98  		call	catch
6C2B: CD8C98  		call	catch
6C2E: CD8C98  		call	catch
6C31: CD8C98  		call	catch
6C34: CD8C98  		call	catch
6C37: CD8C98  		call	catch
6C3A: CD8C98  		call	catch
6C3D: CD8C98  		call	catch
6C40: CD8C98  		call	catch
6C43: CD8C98  		call	catch
6C46: CD8C98  		call	catch
6C49: CD8C98  		call	catch
6C4C: CD8C98  		call	catch
6C4F: CD8C98  		call	catch
6C52: CD8C98  		call	catch
6C55: CD8C98  		call	catch
6C58: CD8C98  		call	catch
6C5B: CD8C98  		call	catch
6C5E: CD8C98  		call	catch
6C61: CD8C98  		call	catch
6C64: CD8C98  		call	catch
6C67: CD8C98  		call	catch
6C6A: CD8C98  		call	catch
6C6D: CD8C98  		call	catch
6C70: CD8C98  		call	catch
6C73: CD8C98  		call	catch
6C76: CD8C98  		call	catch
6C79: CD8C98  		call	catch
6C7C: CD8C98  		call	catch
6C7F: CD8C98  		call	catch
6C82: CD8C98  		call	catch
6C85: CD8C98  		call	catch
6C88: CD8C98  		call	catch
6C8B: CD8C98  		call	catch
6C8E: CD8C98  		call	catch
6C91: CD8C98  		call	catch
6C94: CD8C98  		call	catch
6C97: CD8C98  		call	catch
6C9A: CD8C98  		call	catch
6C9D: CD8C98  		call	catch
6CA0: CD8C98  		call	catch
6CA3: CD8C98  		call	catch
6CA6: CD8C98  		call	catch
6CA9: CD8C98  		call	catch
6CAC: CD8C98  		call	catch
6CAF: CD8C98  		call	catch
6CB2: CD8C98  		call	catch
6CB5: CD8C98  		call	catch
6CB8: CD8C98  		call	catch
6CBB: CD8C98  		call	catch
6CBE: CD8C98  		call	catch
6CC1: CD8C98  		call	catch
6CC4: CD8C98  		call	catch
6CC7: CD8C98  		call	catch
6CCA: CD8C98  		call	catch
6CCD: CD8C98  		call	catch
6CD0: CD8C98  		call	catch
6CD3: CD8C98  		call	catch
6CD6: CD8C98  		call	catch
6CD9: CD8C98  		call	catch
6CDC: CD8C98  		call	catch
6CDF: CD8C98  		call	catch
6CE2: CD8C98  		call	catch
6CE5: CD8C98  		call	catch
6CE8: CD8C98  		call	catch
6CEB: CD8C98  		call	catch
6CEE: CD8C98  		call	catch
6CF1: CD8C98  		call	catch
6CF4: CD8C98  		call	catch
6CF7: CD8C98  		call	catch
6CFA: CD8C98  		call	catch
6CFD: CD8C98  		call	catch
6D00: CD8C98  		call	catch
6D03: CD8C98  		call	catch
6D06: CD8C98  		call	catch
6D09: CD8C98  		call	catch
6D0C: CD8C98  		call	catch
6D0F: CD8C98  		call	catch
6D12: CD8C98  		call	catch
6D15: CD8C98  		call	catch
6D18: CD8C98  		call	catch
6D1B: CD8C98  		call	catch
6D1E: CD8C98  		call	catch
6D21: CD8C98  		call	catch
6D24: CD8C98  		call	catch
6D27: CD8C98  		call	catch
6D2A: CD8C98  		call	catch
6D2D: CD8C98  		call	catch
6D30: CD8C98  		call	catch
6D33: CD8C98  		call	catch
6D36: CD8C98  		call	catch
6D39: CD8C98  		call	catch
6D3C: CD8C98  		call	catch
6D3F: CD8C98  		call	catch
6D42: CD8C98  		call	catch
6D45: CD8C98  		call	catch
6D48: CD8C98  		call	catch
6D4B: CD8C98  		call	catch
6D4E: CD8C98  		call	catch
6D51: CD8C98  		call	catch
6D54: CD8C98  		call	catch
6D57: CD8C98  		call	catch
6D5A: CD8C98  		call	catch
6D5D: CD8C98  		call	catch
6D60: CD8C98  		call	catch
6D63: CD8C98  		call	catch
6D66: CD8C98  		call	catch
6D69: CD8C98  		call	catch
6D6C: CD8C98  		call	catch
6D6F: CD8C98  		call	catch
6D72: CD8C98  		call	catch
6D75: CD8C98  		call	catch
6D78: CD8C98  		call	catch
6D7B: CD8C98  		call	catch
6D7E: CD8C98  		call	catch
6D81: CD8C98  		call	catch
6D84: CD8C98  		call	catch
6D87: CD8C98  		call	catch
6D8A: CD8C98  		call	catch
6D8D: CD8C98  		call	catch
6D90: CD8C98  		call	catch
6D93: CD8C98  		call	catch
6D96: CD8C98  		call	catch
6D99: CD8C98  		call	catch
6D9C: CD8C98  		call	catch
6D9F: CD8C98  		call	catch
6DA2: CD8C98  		call	catch
6DA5: CD8C98  		call	catch
6DA8: CD8C98  		call	catch
6DAB: CD8C98  		call	catch
6DAE: CD8C98  		call	catch
6DB1: CD8C98  		call	catch
6DB4: CD8C98  		call	catch
6DB7: CD8C98  		call	catch
6DBA: CD8C98  		call	catch
6DBD: CD8C98  		call	catch
6DC0: CD8C98  		call	catch
6DC3: CD8C98  		call	catch
6DC6: CD8C98  		call	catch
6DC9: CD8C98  		call	catch
6DCC: CD8C98  		call	catch
6DCF: CD8C98  		call	catch
6DD2: CD8C98  		call	catch
6DD5: CD8C98  		call	catch
6DD8: CD8C98  		call	catch
6DDB: CD8C98  		call	catch
6DDE: CD8C98  		call	catch
6DE1: CD8C98  		call	catch
6DE4: CD8C98  		call	catch
6DE7: CD8C98  		call	catch
6DEA: CD8C98  		call	catch
6DED: CD8C98  		call	catch
6DF0: CD8C98  		call	catch
6DF3: CD8C98  		call	catch
6DF6: CD8C98  		call	catch
6DF9: CD8C98  		call	catch
6DFC: CD8C98  		call	catch
6DFF: CD8C98  		call	catch
6E02: CD8C98  		call	catch
6E05: CD8C98  		call	catch
6E08: CD8C98  		call	catch
6E0B: CD8C98  		call	catch
6E0E: CD8C98  		call	catch
6E11: CD8C98  		call	catch
6E14: CD8C98  		call	catch
6E17: CD8C98  		call	catch
6E1A: CD8C98  		call	catch
6E1D: CD8C98  		call	catch
6E20: CD8C98  		call	catch
6E23: CD8C98  		call	catch
6E26: CD8C98  		call	catch
6E29: CD8C98  		call	catch
6E2C: CD8C98  		call	catch
6E2F: CD8C98  		call	catch
6E32: CD8C98  		call	catch
6E35: CD8C98  		call	catch
6E38: CD8C98  		call	catch
6E3B: CD8C98  		call	catch
6E3E: CD8C98  		call	catch
6E41: CD8C98  		call	catch
6E44: CD8C98  		call	catch
6E47: CD8C98  		call	catch
6E4A: CD8C98  		call	catch
6E4D: CD8C98  		call	catch
6E50: CD8C98  		call	catch
6E53: CD8C98  		call	catch
6E56: CD8C98  		call	catch
6E59: CD8C98  		call	catch
6E5C: CD8C98  		call	catch
6E5F: CD8C98  		call	catch
6E62: CD8C98  		call	catch
6E65: CD8C98  		call	catch
6E68: CD8C98  		call	catch
6E6B: CD8C98  		call	catch
6E6E: CD8C98  		call	catch
6E71: CD8C98  		call	catch
6E74: CD8C98  		call	catch
6E77: CD8C98  		call	catch
6E7A: CD8C98  		call	catch
6E7D: CD8C98  		call	catch
6E80: CD8C98  		call	catch
6E83: CD8C98  		call	catch
6E86: CD8C98  		call	catch
6E89: CD8C98  		call	catch
6E8C: CD8C98  		call	catch
6E8F: CD8C98  		call	catch
6E92: CD8C98  		call	catch
6E95: CD8C98  		call	catch
6E98: CD8C98  		call	catch
6E9B: CD8C98  		call	catch
6E9E: CD8C98  		call	catch
6EA1: CD8C98  		call	catch
6EA4: CD8C98  		call	catch
6EA7: CD8C98  		call	catch
6EAA: CD8C98  		call	catch
6EAD: CD8C98  		call	catch
6EB0: CD8C98  		call	catch
6EB3: CD8C98  		call	catch
6EB6: CD8C98  		call	catch
6EB9: CD8C98  		call	catch
6EBC: CD8C98  		call	catch
6EBF: CD8C98  		call	catch
6EC2: CD8C98  		call	catch
6EC5: CD8C98  		call	catch
6EC8: CD8C98  		call	catch
6ECB: CD8C98  		call	catch
6ECE: CD8C98  		call	catch
6ED1: CD8C98  		call	catch
6ED4: CD8C98  		call	catch
6ED7: CD8C98  		call	catch
6EDA: CD8C98  		call	catch
6EDD: CD8C98  		call	catch
6EE0: CD8C98  		call	catch
6EE3: CD8C98  		call	catch
6EE6: CD8C98  		call	catch
6EE9: CD8C98  		call	catch
6EEC: CD8C98  		call	catch
6EEF: CD8C98  		call	catch
6EF2: CD8C98  		call	catch
6EF5: CD8C98  		call	catch
6EF8: CD8C98  		call	catch
6EFB: CD8C98  		call	catch
6EFE: CD8C98  		call	catch
6F01: CD8C98  		call	catch
6F04: CD8C98  		call	catch
6F07: CD8C98  		call	catch
6F0A: CD8C98  		call	catch
6F0D: CD8C98  		call	catch
6F10: CD8C98  		call	catch
6F13: CD8C98  		call	catch
6F16: CD8C98  		call	catch
6F19: CD8C98  		call	catch
6F1C: CD8C98  		call	catch
6F1F: CD8C98  		call	catch
6F22: CD8C98  		call	catch
6F25: CD8C98  		call	catch
6F28: CD8C98  		call	catch
6F2B: CD8C98  		call	catch
6F2E: CD8C98  		call	catch
6F31: CD8C98  		call	catch
6F34: CD8C98  		call	catch
6F37: CD8C98  		call	catch
6F3A: CD8C98  		call	catch
6F3D: CD8C98  		call	catch
6F40: CD8C98  		call	catch
6F43: CD8C98  		call	catch
6F46: CD8C98  		call	catch
6F49: CD8C98  		call	catch
6F4C: CD8C98  		call	catch
6F4F: CD8C98  		call	catch
6F52: CD8C98  		call	catch
6F55: CD8C98  		call	catch
6F58: CD8C98  		call	catch
6F5B: CD8C98  		call	catch
6F5E: CD8C98  		call	catch
6F61: CD8C98  		call	catch
6F64: CD8C98  		call	catch
6F67: CD8C98  		call	catch
6F6A: CD8C98  		call	catch
6F6D: CD8C98  		call	catch
6F70: CD8C98  		call	catch
6F73: CD8C98  		call	catch
6F76: CD8C98  		call	catch
6F79: CD8C98  		call	catch
6F7C: CD8C98  		call	catch
6F7F: CD8C98  		call	catch
6F82: CD8C98  		call	catch
6F85: CD8C98  		call	catch
6F88: CD8C98  		call	catch
6F8B: CD8C98  		call	catch
6F8E: CD8C98  		call	catch
6F91: CD8C98  		call	catch
6F94: CD8C98  		call	catch
6F97: CD8C98  		call	catch
6F9A: CD8C98  		call	catch
6F9D: CD8C98  		call	catch
6FA0: CD8C98  		call	catch
6FA3: CD8C98  		call	catch
6FA6: CD8C98  		call	catch
6FA9: CD8C98  		call	catch
6FAC: CD8C98  		call	catch
6FAF: CD8C98  		call	catch
6FB2: CD8C98  		call	catch
6FB5: CD8C98  		call	catch
6FB8: CD8C98  		call	catch
6FBB: CD8C98  		call	catch
6FBE: CD8C98  		call	catch
6FC1: CD8C98  		call	catch
6FC4: CD8C98  		call	catch
6FC7: CD8C98  		call	catch
6FCA: CD8C98  		call	catch
6FCD: CD8C98  		call	catch
6FD0: CD8C98  		call	catch
6FD3: CD8C98  		call	catch
6FD6: CD8C98  		call	catch
6FD9: CD8C98  		call	catch
6FDC: CD8C98  		call	catch
6FDF: CD8C98  		call	catch
6FE2: CD8C98  		call	catch
6FE5: CD8C98  		call	catch
6FE8: CD8C98  		call	catch
6FEB: CD8C98  		call	catch
6FEE: CD8C98  		call	catch
6FF1: CD8C98  		call	catch
6FF4: CD8C98  		call	catch
6FF7: CD8C98  		call	catch
6FFA: CD8C98  		call	catch
6FFD: CD8C98  		call	catch
7000: CD8C98  		call	catch
7003: CD8C98  		call	catch
7006: CD8C98  		call	catch
7009: CD8C98  		call	catch
700C: CD8C98  		call	catch
700F: CD8C98  		call	catch
7012: CD8C98  		call	catch
7015: CD8C98  		call	catch
7018: CD8C98  		call	catch
701B: CD8C98  		call	catch
701E: CD8C98  		call	catch
7021: CD8C98  		call	catch
7024: CD8C98  		call	catch
7027: CD8C98  		call	catch
702A: CD8C98  		call	catch
702D: CD8C98  		call	catch
7030: CD8C98  		call	catch
7033: CD8C98  		call	catch
7036: CD8C98  		call	catch
7039: CD8C98  		call	catch
703C: CD8C98  		call	catch
703F: CD8C98  		call	catch
7042: CD8C98  		call	catch
7045: CD8C98  		call	catch
7048: CD8C98  		call	catch
704B: CD8C98  		call	catch
704E: CD8C98  		call	catch
7051: CD8C98  		call	catch
7054: CD8C98  		call	catch
7057: CD8C98  		call	catch
705A: CD8C98  		call	catch
705D: CD8C98  		call	catch
7060: CD8C98  		call	catch
7063: CD8C98  		call	catch
7066: CD8C98  		call	catch
7069: CD8C98  		call	catch
706C: CD8C98  		call	catch
706F: CD8C98  		call	catch
7072: CD8C98  		call	catch
7075: CD8C98  		call	catch
7078: CD8C98  		call	catch
707B: CD8C98  		call	catch
707E: CD8C98  		call	catch
7081: CD8C98  		call	catch
7084: CD8C98  		call	catch
7087: CD8C98  		call	catch
708A: CD8C98  		call	catch
708D: CD8C98  		call	catch
7090: CD8C98  		call	catch
7093: CD8C98  		call	catch
7096: CD8C98  		call	catch
7099: CD8C98  		call	catch
709C: CD8C98  		call	catch
709F: CD8C98  		call	catch
70A2: CD8C98  		call	catch
70A5: CD8C98  		call	catch
70A8: CD8C98  		call	catch
70AB: CD8C98  		call	catch
70AE: CD8C98  		call	catch
70B1: CD8C98  		call	catch
70B4: CD8C98  		call	catch
70B7: CD8C98  		call	catch
70BA: CD8C98  		call	catch
70BD: CD8C98  		call	catch
70C0: CD8C98  		call	catch
70C3: CD8C98  		call	catch
70C6: CD8C98  		call	catch
70C9: CD8C98  		call	catch
70CC: CD8C98  		call	catch
70CF: CD8C98  		call	catch
70D2: CD8C98  		call	catch
70D5: CD8C98  		call	catch
70D8: CD8C98  		call	catch
70DB: CD8C98  		call	catch
70DE: CD8C98  		call	catch
70E1: CD8C98  		call	catch
70E4: CD8C98  		call	catch
70E7: CD8C98  		call	catch
70EA: CD8C98  		call	catch
70ED: CD8C98  		call	catch
70F0: CD8C98  		call	catch
70F3: CD8C98  		call	catch
70F6: CD8C98  		call	catch
70F9: CD8C98  		call	catch
70FC: CD8C98  		call	catch
70FF: CD8C98  		call	catch
7102: CD8C98  		call	catch
7105: CD8C98  		call	catch
7108: CD8C98  		call	catch
710B: CD8C98  		call	catch
710E: CD8C98  		call	catch
7111: CD8C98  		call	catch
7114: CD8C98  		call	catch
7117: CD8C98  		call	catch
711A: CD8C98  		call	catch
711D: CD8C98  		call	catch
7120: CD8C98  		call	catch
7123: CD8C98  		call	catch
7126: CD8C98  		call	catch
7129: CD8C98  		call	catch
712C: CD8C98  		call	catch
712F: CD8C98  		call	catch
7132: CD8C98  		call	catch
7135: CD8C98  		call	catch
7138: CD8C98  		call	catch
713B: CD8C98  		call	catch
713E: CD8C98  		call	catch
7141: CD8C98  		call	catch
7144: CD8C98  		call	catch
7147: CD8C98  		call	catch
714A: CD8C98  		call	catch
714D: CD8C98  		call	catch
7150: CD8C98  		call	catch
7153: CD8C98  		call	catch
7156: CD8C98  		call	catch
7159: CD8C98  		call	catch
715C: CD8C98  		call	catch
715F: CD8C98  		call	catch
7162: CD8C98  		call	catch
7165: CD8C98  		call	catch
7168: CD8C98  		call	catch
716B: CD8C98  		call	catch
716E: CD8C98  		call	catch
7171: CD8C98  		call	catch
7174: CD8C98  		call	catch
7177: CD8C98  		call	catch
717A: CD8C98  		call	catch
717D: CD8C98  		call	catch
7180: CD8C98  		call	catch
7183: CD8C98  		call	catch
7186: CD8C98  		call	catch
7189: CD8C98  		call	catch
718C: CD8C98  		call	catch
718F: CD8C98  		call	catch
7192: CD8C98  		call	catch
7195: CD8C98  		call	catch
7198: CD8C98  		call	catch
719B: CD8C98  		call	catch
719E: CD8C98  		call	catch
71A1: CD8C98  		call	catch
71A4: CD8C98  		call	catch
71A7: CD8C98  		call	catch
71AA: CD8C98  		call	catch
71AD: CD8C98  		call	catch
71B0: CD8C98  		call	catch
71B3: CD8C98  		call	catch
71B6: CD8C98  		call	catch
71B9: CD8C98  		call	catch
71BC: CD8C98  		call	catch
71BF: CD8C98  		call	catch
71C2: CD8C98  		call	catch
71C5: CD8C98  		call	catch
71C8: CD8C98  		call	catch
71CB: CD8C98  		call	catch
71CE: CD8C98  		call	catch
71D1: CD8C98  		call	catch
71D4: CD8C98  		call	catch
71D7: CD8C98  		call	catch
71DA: CD8C98  		call	catch
71DD: CD8C98  		call	catch
71E0: CD8C98  		call	catch
71E3: CD8C98  		call	catch
71E6: CD8C98  		call	catch
71E9: CD8C98  		call	catch
71EC: CD8C98  		call	catch
71EF: CD8C98  		call	catch
71F2: CD8C98  		call	catch
71F5: CD8C98  		call	catch
71F8: CD8C98  		call	catch
71FB: CD8C98  		call	catch
71FE: CD8C98  		call	catch
7201: CD8C98  		call	catch
7204: CD8C98  		call	catch
7207: CD8C98  		call	catch
720A: CD8C98  		call	catch
720D: CD8C98  		call	catch
7210: CD8C98  		call	catch
7213: CD8C98  		call	catch
7216: CD8C98  		call	catch
7219: CD8C98  		call	catch
721C: CD8C98  		call	catch
721F: CD8C98  		call	catch
7222: CD8C98  		call	catch
7225: CD8C98  		call	catch
7228: CD8C98  		call	catch
722B: CD8C98  		call	catch
722E: CD8C98  		call	catch
7231: CD8C98  		call	catch
7234: CD8C98  			call	catch
7237: CD8C98  		call	catch
723A: CD8C98  		call	catch
723D: CD8C98  		call	catch
7240: CD8C98  		call	catch
7243: CD8C98  		call	catch
7246: CD8C98  		call	catch
7249: CD8C98  		call	catch
724C: CD8C98  		call	catch
724F: CD8C98  		call	catch
7252: CD8C98  		call	catch
7255: CD8C98  		call	catch
7258: CD8C98  		call	catch
725B: CD8C98  		call	catch
725E: CD8C98  		call	catch
7261: CD8C98  		call	catch
7264: CD8C98  		call	catch
7267: CD8C98  		call	catch
726A: CD8C98  		call	catch
726D: CD8C98  		call	catch
7270: CD8C98  		call	catch
7273: CD8C98  		call	catch
7276: CD8C98  		call	catch
7279: CD8C98  		call	catch
727C: CD8C98  		call	catch
727F: CD8C98  		call	catch
7282: CD8C98  		call	catch
7285: CD8C98  		call	catch
7288: CD8C98  		call	catch
728B: CD8C98  		call	catch
728E: CD8C98  		call	catch
7291: CD8C98  		call	catch
7294: CD8C98  		call	catch
7297: CD8C98  		call	catch
729A: CD8C98  		call	catch
729D: CD8C98  		call	catch
72A0: CD8C98  		call	catch
72A3: CD8C98  		call	catch
72A6: CD8C98  		call	catch
72A9: CD8C98  		call	catch
72AC: CD8C98  		call	catch
72AF: CD8C98  		call	catch
72B2: CD8C98  		call	catch
72B5: CD8C98  		call	catch
72B8: CD8C98  		call	catch
72BB: CD8C98  		call	catch
72BE: CD8C98  		call	catch
72C1: CD8C98  		call	catch
72C4: CD8C98  		call	catch
72C7: CD8C98  		call	catch
72CA: CD8C98  		call	catch
72CD: CD8C98  		call	catch
72D0: CD8C98  		call	catch
72D3: CD8C98  		call	catch
72D6: CD8C98  		call	catch
72D9: CD8C98  		call	catch
72DC: CD8C98  		call	catch
72DF: CD8C98  		call	catch
72E2: CD8C98  		call	catch
72E5: CD8C98  		call	catch
72E8: CD8C98  		call	catch
72EB: CD8C98  		call	catch
72EE: CD8C98  		call	catch
72F1: CD8C98  		call	catch
72F4: CD8C98  		call	catch
72F7: CD8C98  		call	catch
72FA: CD8C98  		call	catch
72FD: CD8C98  		call	catch
7300: CD8C98  		call	catch
7303: CD8C98  		call	catch
7306: CD8C98  		call	catch
7309: CD8C98  		call	catch
730C: CD8C98  		call	catch
730F: CD8C98  		call	catch
7312: CD8C98  		call	catch
7315: CD8C98  		call	catch
7318: CD8C98  		call	catch
731B: CD8C98  		call	catch
731E: CD8C98  		call	catch
7321: CD8C98  		call	catch
7324: CD8C98  		call	catch
7327: CD8C98  		call	catch
732A: CD8C98  		call	catch
732D: CD8C98  		call	catch
7330: CD8C98  		call	catch
7333: CD8C98  		call	catch
7336: CD8C98  		call	catch
7339: CD8C98  		call	catch
733C: CD8C98  		call	catch
733F: CD8C98  		call	catch
7342: CD8C98  		call	catch
7345: CD8C98  		call	catch
7348: CD8C98  		call	catch
734B: CD8C98  		call	catch
734E: CD8C98  		call	catch
7351: CD8C98  		call	catch
7354: CD8C98  		call	catch
7357: CD8C98  		call	catch
735A: CD8C98  		call	catch
735D: CD8C98  		call	catch
7360: CD8C98  		call	catch
7363: CD8C98  		call	catch
7366: CD8C98  		call	catch
7369: CD8C98  		call	catch
736C: CD8C98  		call	catch
736F: CD8C98  		call	catch
7372: CD8C98  		call	catch
7375: CD8C98  		call	catch
7378: CD8C98  		call	catch
737B: CD8C98  		call	catch
737E: CD8C98  		call	catch
7381: CD8C98  		call	catch
7384: CD8C98  		call	catch
7387: CD8C98  		call	catch
738A: CD8C98  		call	catch
738D: CD8C98  		call	catch
7390: CD8C98  		call	catch
7393: CD8C98  		call	catch
7396: CD8C98  		call	catch
7399: CD8C98  		call	catch
739C: CD8C98  		call	catch
739F: CD8C98  		call	catch
73A2: CD8C98  		call	catch
73A5: CD8C98  		call	catch
73A8: CD8C98  		call	catch
73AB: CD8C98  		call	catch
73AE: CD8C98  		call	catch
73B1: CD8C98  		call	catch
73B4: CD8C98  		call	catch
73B7: CD8C98  		call	catch
73BA: CD8C98  		call	catch
73BD: CD8C98  		call	catch
73C0: CD8C98  		call	catch
73C3: CD8C98  		call	catch
73C6: CD8C98  		call	catch
73C9: CD8C98  		call	catch
73CC: CD8C98  		call	catch
73CF: CD8C98  		call	catch
73D2: CD8C98  		call	catch
73D5: CD8C98  		call	catch
73D8: CD8C98  		call	catch
73DB: CD8C98  		call	catch
73DE: CD8C98  		call	catch
73E1: CD8C98  		call	catch
73E4: CD8C98  		call	catch
73E7: CD8C98  		call	catch
73EA: CD8C98  		call	catch
73ED: CD8C98  		call	catch
73F0: CD8C98  		call	catch
73F3: CD8C98  		call	catch
73F6: CD8C98  		call	catch
73F9: CD8C98  		call	catch
73FC: CD8C98  		call	catch
73FF: CD8C98  		call	catch
7402: CD8C98  		call	catch
7405: CD8C98  		call	catch
7408: CD8C98  		call	catch
740B: CD8C98  		call	catch
740E: CD8C98  		call	catch
7411: CD8C98  		call	catch
7414: CD8C98  		call	catch
7417: CD8C98  		call	catch
741A: CD8C98  		call	catch
741D: CD8C98  		call	catch
7420: CD8C98  		call	catch
7423: CD8C98  		call	catch
7426: CD8C98  		call	catch
7429: CD8C98  		call	catch
742C: CD8C98  		call	catch
742F: CD8C98  		call	catch
7432: CD8C98  		call	catch
7435: CD8C98  		call	catch
7438: CD8C98  		call	catch
743B: CD8C98  		call	catch
743E: CD8C98  		call	catch
7441: CD8C98  		call	catch
7444: CD8C98  		call	catch
7447: CD8C98  		call	catch
744A: CD8C98  		call	catch
744D: CD8C98  		call	catch
7450: CD8C98  		call	catch
7453: CD8C98  		call	catch
7456: CD8C98  		call	catch
7459: CD8C98  		call	catch
745C: CD8C98  		call	catch
745F: CD8C98  		call	catch
7462: CD8C98  		call	catch
7465: CD8C98  		call	catch
7468: CD8C98  		call	catch
746B: CD8C98  		call	catch
746E: CD8C98  		call	catch
7471: CD8C98  		call	catch
7474: CD8C98  		call	catch
7477: CD8C98  		call	catch
747A: CD8C98  		call	catch
747D: CD8C98  		call	catch
7480: CD8C98  		call	catch
7483: CD8C98  		call	catch
7486: CD8C98  		call	catch
7489: CD8C98  		call	catch
748C: CD8C98  		call	catch
748F: CD8C98  		call	catch
7492: CD8C98  		call	catch
7495: CD8C98  		call	catch
7498: CD8C98  		call	catch
749B: CD8C98  		call	catch
749E: CD8C98  		call	catch
74A1: CD8C98  		call	catch
74A4: CD8C98  		call	catch
74A7: CD8C98  		call	catch
74AA: CD8C98  		call	catch
74AD: CD8C98  		call	catch
74B0: CD8C98  		call	catch
74B3: CD8C98  		call	catch
74B6: CD8C98  		call	catch
74B9: CD8C98  		call	catch
74BC: CD8C98  		call	catch
74BF: CD8C98  		call	catch
74C2: CD8C98  		call	catch
74C5: CD8C98  		call	catch
74C8: CD8C98  		call	catch
74CB: CD8C98  		call	catch
74CE: CD8C98  		call	catch
74D1: CD8C98  		call	catch
74D4: CD8C98  		call	catch
74D7: CD8C98  		call	catch
74DA: CD8C98  		call	catch
74DD: CD8C98  		call	catch
74E0: CD8C98  		call	catch
74E3: CD8C98  		call	catch
74E6: CD8C98  		call	catch
74E9: CD8C98  		call	catch
74EC: CD8C98  		call	catch
74EF: CD8C98  		call	catch
74F2: CD8C98  		call	catch
74F5: CD8C98  		call	catch
74F8: CD8C98  		call	catch
74FB: CD8C98  		call	catch
74FE: CD8C98  		call	catch
7501: CD8C98  		call	catch
7504: CD8C98  		call	catch
7507: CD8C98  		call	catch
750A: CD8C98  		call	catch
750D: CD8C98  		call	catch
7510: CD8C98  		call	catch
7513: CD8C98  		call	catch
7516: CD8C98  		call	catch
7519: CD8C98  		call	catch
751C: CD8C98  		call	catch
751F: CD8C98  		call	catch
7522: CD8C98  		call	catch
7525: CD8C98  		call	catch
7528: CD8C98  		call	catch
752B: CD8C98  		call	catch
752E: CD8C98  		call	catch
7531: CD8C98  		call	catch
7534: CD8C98  		call	catch
7537: CD8C98  		call	catch
753A: CD8C98  		call	catch
753D: CD8C98  		call	catch
7540: CD8C98  		call	catch
7543: CD8C98  		call	catch
7546: CD8C98  		call	catch
7549: CD8C98  		call	catch
754C: CD8C98  		call	catch
754F: CD8C98  		call	catch
7552: CD8C98  		call	catch
7555: CD8C98  		call	catch
7558: CD8C98  		call	catch
755B: CD8C98  		call	catch
755E: CD8C98  		call	catch
7561: CD8C98  		call	catch
7564: CD8C98  		call	catch
7567: CD8C98  		call	catch
756A: CD8C98  		call	catch
756D: CD8C98  		call	catch
7570: CD8C98  		call	catch
7573: CD8C98  		call	catch
7576: CD8C98  		call	catch
7579: CD8C98  		call	catch
757C: CD8C98  		call	catch
757F: CD8C98  		call	catch
7582: CD8C98  		call	catch
7585: CD8C98  		call	catch
7588: CD8C98  		call	catch
758B: CD8C98  		call	catch
758E: CD8C98  		call	catch
7591: CD8C98  		call	catch
7594: CD8C98  		call	catch
7597: CD8C98  		call	catch
759A: CD8C98  		call	catch
759D: CD8C98  		call	catch
75A0: CD8C98  		call	catch
75A3: CD8C98  		call	catch
75A6: CD8C98  		call	catch
75A9: CD8C98  		call	catch
75AC: CD8C98  		call	catch
75AF: CD8C98  		call	catch
75B2: CD8C98  		call	catch
75B5: CD8C98  		call	catch
75B8: CD8C98  		call	catch
75BB: CD8C98  		call	catch
75BE: CD8C98  		call	catch
75C1: CD8C98  		call	catch
75C4: CD8C98  		call	catch
75C7: CD8C98  		call	catch
75CA: CD8C98  		call	catch
75CD: CD8C98  		call	catch
75D0: CD8C98  		call	catch
75D3: CD8C98  		call	catch
75D6: CD8C98  		call	catch
75D9: CD8C98  		call	catch
75DC: CD8C98  		call	catch
75DF: CD8C98  		call	catch
75E2: CD8C98  		call	catch
75E5: CD8C98  		call	catch
75E8: CD8C98  		call	catch
75EB: CD8C98  		call	catch
75EE: CD8C98  		call	catch
75F1: CD8C98  		call	catch
75F4: CD8C98  		call	catch
75F7: CD8C98  		call	catch
75FA: CD8C98  		call	catch
75FD: CD8C98  		call	catch
7600: CD8C98  		call	catch
7603: CD8C98  		call	catch
7606: CD8C98  		call	catch
7609: CD8C98  		call	catch
760C: CD8C98  		call	catch
760F: CD8C98  		call	catch
7612: CD8C98  		call	catch
7615: CD8C98  		call	catch
7618: CD8C98  		call	catch
761B: CD8C98  		call	catch
761E: CD8C98  		call	catch
7621: CD8C98  		call	catch
7624: CD8C98  		call	catch
7627: CD8C98  		call	catch
762A: CD8C98  		call	catch
762D: CD8C98  		call	catch
7630: CD8C98  		call	catch
7633: CD8C98  		call	catch
7636: CD8C98  		call	catch
7639: CD8C98  		call	catch
763C: CD8C98  		call	catch
763F: CD8C98  		call	catch
7642: CD8C98  		call	catch
7645: CD8C98  		call	catch
7648: CD8C98  		call	catch
764B: CD8C98  		call	catch
764E: CD8C98  		call	catch
7651: CD8C98  		call	catch
7654: CD8C98  		call	catch
7657: CD8C98  		call	catch
765A: CD8C98  		call	catch
765D: CD8C98  		call	catch
7660: CD8C98  		call	catch
7663: CD8C98  		call	catch
7666: CD8C98  		call	catch
7669: CD8C98  		call	catch
766C: CD8C98  		call	catch
766F: CD8C98  		call	catch
7672: CD8C98  		call	catch
7675: CD8C98  		call	catch
7678: CD8C98  		call	catch
767B: CD8C98  		call	catch
767E: CD8C98  		call	catch
7681: CD8C98  		call	catch
7684: CD8C98  		call	catch
7687: CD8C98  		call	catch
768A: CD8C98  		call	catch
768D: CD8C98  		call	catch
7690: CD8C98  		call	catch
7693: CD8C98  		call	catch
7696: CD8C98  		call	catch
7699: CD8C98  		call	catch
769C: CD8C98  		call	catch
769F: CD8C98  		call	catch
76A2: CD8C98  		call	catch
76A5: CD8C98  		call	catch
76A8: CD8C98  		call	catch
76AB: CD8C98  		call	catch
76AE: CD8C98  		call	catch
76B1: CD8C98  		call	catch
76B4: CD8C98  		call	catch
76B7: CD8C98  		call	catch
76BA: CD8C98  		call	catch
76BD: CD8C98  		call	catch
76C0: CD8C98  		call	catch
76C3: CD8C98  		call	catch
76C6: CD8C98  		call	catch
76C9: CD8C98  		call	catch
76CC: CD8C98  		call	catch
76CF: CD8C98  		call	catch
76D2: CD8C98  		call	catch
76D5: CD8C98  		call	catch
76D8: CD8C98  		call	catch
76DB: CD8C98  		call	catch
76DE: CD8C98  		call	catch
76E1: CD8C98  		call	catch
76E4: CD8C98  		call	catch
76E7: CD8C98  		call	catch
76EA: CD8C98  		call	catch
76ED: CD8C98  		call	catch
76F0: CD8C98  		call	catch
76F3: CD8C98  		call	catch
76F6: CD8C98  		call	catch
76F9: CD8C98  		call	catch
76FC: CD8C98  		call	catch
76FF: CD8C98  		call	catch
7702: CD8C98  		call	catch
7705: CD8C98  		call	catch
7708: CD8C98  		call	catch
770B: CD8C98  		call	catch
770E: CD8C98  		call	catch
7711: CD8C98  		call	catch
7714: CD8C98  		call	catch
7717: CD8C98  		call	catch
771A: CD8C98  		call	catch
771D: CD8C98  		call	catch
7720: CD8C98  		call	catch
7723: CD8C98  		call	catch
7726: CD8C98  		call	catch
7729: CD8C98  		call	catch
772C: CD8C98  		call	catch
772F: CD8C98  		call	catch
7732: CD8C98  		call	catch
7735: CD8C98  		call	catch
7738: CD8C98  		call	catch
773B: CD8C98  		call	catch
773E: CD8C98  		call	catch
7741: CD8C98  		call	catch
7744: CD8C98  		call	catch
7747: CD8C98  		call	catch
774A: CD8C98  		call	catch
774D: CD8C98  		call	catch
7750: CD8C98  		call	catch
7753: CD8C98  		call	catch
7756: CD8C98  		call	catch
7759: CD8C98  		call	catch
775C: CD8C98  		call	catch
775F: CD8C98  		call	catch
7762: CD8C98  		call	catch
7765: CD8C98  		call	catch
7768: CD8C98  		call	catch
776B: CD8C98  		call	catch
776E: CD8C98  		call	catch
7771: CD8C98  		call	catch
7774: CD8C98  		call	catch
7777: CD8C98  		call	catch
777A: CD8C98  		call	catch
777D: CD8C98  		call	catch
7780: CD8C98  		call	catch
7783: CD8C98  		call	catch
7786: CD8C98  		call	catch
7789: CD8C98  		call	catch
778C: CD8C98  		call	catch
778F: CD8C98  		call	catch
7792: CD8C98  		call	catch
7795: CD8C98  		call	catch
7798: CD8C98  		call	catch
779B: CD8C98  		call	catch
779E: CD8C98  		call	catch
77A1: CD8C98  		call	catch
77A4: CD8C98  		call	catch
77A7: CD8C98  		call	catch
77AA: CD8C98  		call	catch
77AD: CD8C98  		call	catch
77B0: CD8C98  		call	catch
77B3: CD8C98  		call	catch
77B6: CD8C98  		call	catch
77B9: CD8C98  		call	catch
77BC: CD8C98  		call	catch
77BF: CD8C98  		call	catch
77C2: CD8C98  		call	catch
77C5: CD8C98  		call	catch
77C8: CD8C98  		call	catch
77CB: CD8C98  		call	catch
77CE: CD8C98  		call	catch
77D1: CD8C98  		call	catch
77D4: CD8C98  		call	catch
77D7: CD8C98  		call	catch
77DA: CD8C98  		call	catch
77DD: CD8C98  		call	catch
77E0: CD8C98  		call	catch
77E3: CD8C98  		call	catch
77E6: CD8C98  		call	catch
77E9: CD8C98  		call	catch
77EC: CD8C98  		call	catch
77EF: CD8C98  		call	catch
77F2: CD8C98  		call	catch
77F5: CD8C98  		call	catch
77F8: CD8C98  		call	catch
77FB: CD8C98  		call	catch
77FE: CD8C98  		call	catch
7801: CD8C98  		call	catch
7804: CD8C98  		call	catch
7807: CD8C98  		call	catch
780A: CD8C98  		call	catch
780D: CD8C98  		call	catch
7810: CD8C98  		call	catch
7813: CD8C98  		call	catch
7816: CD8C98  		call	catch
7819: CD8C98  		call	catch
781C: CD8C98  		call	catch
781F: CD8C98  		call	catch
7822: CD8C98  		call	catch
7825: CD8C98  		call	catch
7828: CD8C98  		call	catch
782B: CD8C98  		call	catch
782E: CD8C98  		call	catch
7831: CD8C98  		call	catch
7834: CD8C98  		call	catch
7837: CD8C98  		call	catch
783A: CD8C98  		call	catch
783D: CD8C98  		call	catch
7840: CD8C98  		call	catch
7843: CD8C98  		call	catch
7846: CD8C98  		call	catch
7849: CD8C98  		call	catch
784C: CD8C98  		call	catch
784F: CD8C98  		call	catch
7852: CD8C98  		call	catch
7855: CD8C98  		call	catch
7858: CD8C98  		call	catch
785B: CD8C98  		call	catch
785E: CD8C98  		call	catch
7861: CD8C98  		call	catch
7864: CD8C98  		call	catch
7867: CD8C98  		call	catch
786A: CD8C98  		call	catch
786D: CD8C98  		call	catch
7870: CD8C98  		call	catch
7873: CD8C98  		call	catch
7876: CD8C98  		call	catch
7879: CD8C98  		call	catch
787C: CD8C98  		call	catch
787F: CD8C98  		call	catch
7882: CD8C98  		call	catch
7885: CD8C98  		call	catch
7888: CD8C98  		call	catch
788B: CD8C98  		call	catch
788E: CD8C98  		call	catch
7891: CD8C98  		call	catch
7894: CD8C98  		call	catch
7897: CD8C98  		call	catch
789A: CD8C98  		call	catch
789D: CD8C98  		call	catch
78A0: CD8C98  		call	catch
78A3: CD8C98  		call	catch
78A6: CD8C98  		call	catch
78A9: CD8C98  		call	catch
78AC: CD8C98  		call	catch
78AF: CD8C98  		call	catch
78B2: CD8C98  		call	catch
78B5: CD8C98  		call	catch
78B8: CD8C98  		call	catch
78BB: CD8C98  		call	catch
78BE: CD8C98  		call	catch
78C1: CD8C98  		call	catch
78C4: CD8C98  		call	catch
78C7: CD8C98  		call	catch
78CA: CD8C98  		call	catch
78CD: CD8C98  		call	catch
78D0: CD8C98  		call	catch
78D3: CD8C98  		call	catch
78D6: CD8C98  		call	catch
78D9: CD8C98  		call	catch
78DC: CD8C98  		call	catch
78DF: CD8C98  		call	catch
78E2: CD8C98  		call	catch
78E5: CD8C98  		call	catch
78E8: CD8C98  		call	catch
78EB: CD8C98  		call	catch
78EE: CD8C98  		call	catch
78F1: CD8C98  		call	catch
78F4: CD8C98  		call	catch
78F7: CD8C98  		call	catch
78FA: CD8C98  		call	catch
78FD: CD8C98  		call	catch
7900: CD8C98  		call	catch
7903: CD8C98  		call	catch
7906: CD8C98  		call	catch
7909: CD8C98  		call	catch
790C: CD8C98  		call	catch
790F: CD8C98  		call	catch
7912: CD8C98  		call	catch
7915: CD8C98  		call	catch
7918: CD8C98  		call	catch
791B: CD8C98  		call	catch
791E: CD8C98  		call	catch
7921: CD8C98  		call	catch
7924: CD8C98  		call	catch
7927: CD8C98  		call	catch
792A: CD8C98  		call	catch
792D: CD8C98  		call	catch
7930: CD8C98  		call	catch
7933: CD8C98  		call	catch
7936: CD8C98  		call	catch
7939: CD8C98  		call	catch
793C: CD8C98  		call	catch
793F: CD8C98  		call	catch
7942: CD8C98  		call	catch
7945: CD8C98  		call	catch
7948: CD8C98  		call	catch
794B: CD8C98  		call	catch
794E: CD8C98  		call	catch
7951: CD8C98  		call	catch
7954: CD8C98  		call	catch
7957: CD8C98  		call	catch
795A: CD8C98  		call	catch
795D: CD8C98  		call	catch
7960: CD8C98  		call	catch
7963: CD8C98  		call	catch
7966: CD8C98  		call	catch
7969: CD8C98  		call	catch
796C: CD8C98  		call	catch
796F: CD8C98  		call	catch
7972: CD8C98  		call	catch
7975: CD8C98  		call	catch
7978: CD8C98  		call	catch
797B: CD8C98  		call	catch
797E: CD8C98  		call	catch
7981: CD8C98  		call	catch
7984: CD8C98  		call	catch
7987: CD8C98  		call	catch
798A: CD8C98  		call	catch
798D: CD8C98  		call	catch
7990: CD8C98  		call	catch
7993: CD8C98  		call	catch
7996: CD8C98  		call	catch
7999: CD8C98  		call	catch
799C: CD8C98  		call	catch
799F: CD8C98  		call	catch
79A2: CD8C98  		call	catch
79A5: CD8C98  		call	catch
79A8: CD8C98  		call	catch
79AB: CD8C98  		call	catch
79AE: CD8C98  		call	catch
79B1: CD8C98  		call	catch
79B4: CD8C98  		call	catch
79B7: CD8C98  		call	catch
79BA: CD8C98  		call	catch
79BD: CD8C98  		call	catch
79C0: CD8C98  		call	catch
79C3: CD8C98  		call	catch
79C6: CD8C98  		call	catch
79C9: CD8C98  		call	catch
79CC: CD8C98  		call	catch
79CF: CD8C98  		call	catch
79D2: CD8C98  		call	catch
79D5: CD8C98  		call	catch
79D8: CD8C98  		call	catch
79DB: CD8C98  		call	catch
79DE: CD8C98  		call	catch
79E1: CD8C98  		call	catch
79E4: CD8C98  		call	catch
79E7: CD8C98  		call	catch
79EA: CD8C98  		call	catch
79ED: CD8C98  		call	catch
79F0: CD8C98  		call	catch
79F3: CD8C98  		call	catch
79F6: CD8C98  		call	catch
79F9: CD8C98  		call	catch
79FC: CD8C98  		call	catch
79FF: CD8C98  		call	catch
7A02: CD8C98  		call	catch
7A05: CD8C98  		call	catch
7A08: CD8C98  		call	catch
7A0B: CD8C98  		call	catch
7A0E: CD8C98  		call	catch
7A11: CD8C98  		call	catch
7A14: CD8C98  		call	catch
7A17: CD8C98  		call	catch
7A1A: CD8C98  		call	catch
7A1D: CD8C98  		call	catch
7A20: CD8C98  		call	catch
7A23: CD8C98  		call	catch
7A26: CD8C98  		call	catch
7A29: CD8C98  		call	catch
7A2C: CD8C98  		call	catch
7A2F: CD8C98  		call	catch
7A32: CD8C98  		call	catch
7A35: CD8C98  		call	catch
7A38: CD8C98  		call	catch
7A3B: CD8C98  		call	catch
7A3E: CD8C98  		call	catch
7A41: CD8C98  		call	catch
7A44: CD8C98  		call	catch
7A47: CD8C98  		call	catch
7A4A: CD8C98  		call	catch
7A4D: CD8C98  		call	catch
7A50: CD8C98  		call	catch
7A53: CD8C98  		call	catch
7A56: CD8C98  		call	catch
7A59: CD8C98  		call	catch
7A5C: CD8C98  		call	catch
7A5F: CD8C98  		call	catch
7A62: CD8C98  		call	catch
7A65: CD8C98  		call	catch
7A68: CD8C98  		call	catch
7A6B: CD8C98  		call	catch
7A6E: CD8C98  		call	catch
7A71: CD8C98  		call	catch
7A74: CD8C98  		call	catch
7A77: CD8C98  		call	catch
7A7A: CD8C98  		call	catch
7A7D: CD8C98  		call	catch
7A80: CD8C98  		call	catch
7A83: CD8C98  		call	catch
7A86: CD8C98  		call	catch
7A89: CD8C98  		call	catch
7A8C: CD8C98  		call	catch
7A8F: CD8C98  		call	catch
7A92: CD8C98  		call	catch
7A95: CD8C98  		call	catch
7A98: CD8C98  		call	catch
7A9B: CD8C98  		call	catch
7A9E: CD8C98  		call	catch
7AA1: CD8C98  		call	catch
7AA4: CD8C98  		call	catch
7AA7: CD8C98  		call	catch
7AAA: CD8C98  		call	catch
7AAD: CD8C98  		call	catch
7AB0: CD8C98  		call	catch
7AB3: CD8C98  		call	catch
7AB6: CD8C98  		call	catch
7AB9: CD8C98  		call	catch
7ABC: CD8C98  		call	catch
7ABF: CD8C98  		call	catch
7AC2: CD8C98  		call	catch
7AC5: CD8C98  		call	catch
7AC8: CD8C98  		call	catch
7ACB: CD8C98  		call	catch
7ACE: CD8C98  		call	catch
7AD1: CD8C98  		call	catch
7AD4: CD8C98  		call	catch
7AD7: CD8C98  		call	catch
7ADA: CD8C98  		call	catch
7ADD: CD8C98  		call	catch
7AE0: CD8C98  		call	catch
7AE3: CD8C98  		call	catch
7AE6: CD8C98  		call	catch
7AE9: CD8C98  		call	catch
7AEC: CD8C98  		call	catch
7AEF: CD8C98  		call	catch
7AF2: CD8C98  		call	catch
7AF5: CD8C98  		call	catch
7AF8: CD8C98  		call	catch
7AFB: CD8C98  		call	catch
7AFE: CD8C98  		call	catch
7B01: CD8C98  		call	catch
7B04: CD8C98  		call	catch
7B07: CD8C98  		call	catch
7B0A: CD8C98  		call	catch
7B0D: CD8C98  		call	catch
7B10: CD8C98  		call	catch
7B13: CD8C98  		call	catch
7B16: CD8C98  		call	catch
7B19: CD8C98  		call	catch
7B1C: CD8C98  		call	catch
7B1F: CD8C98  		call	catch
7B22: CD8C98  		call	catch
7B25: CD8C98  		call	catch
7B28: CD8C98  		call	catch
7B2B: CD8C98  		call	catch
7B2E: CD8C98  		call	catch
7B31: CD8C98  		call	catch
7B34: CD8C98  		call	catch
7B37: CD8C98  		call	catch
7B3A: CD8C98  		call	catch
7B3D: CD8C98  		call	catch
7B40: CD8C98  		call	catch
7B43: CD8C98  		call	catch
7B46: CD8C98  		call	catch
7B49: CD8C98  		call	catch
7B4C: CD8C98  		call	catch
7B4F: CD8C98  		call	catch
7B52: CD8C98  		call	catch
7B55: CD8C98  		call	catch
7B58: CD8C98  		call	catch
7B5B: CD8C98  		call	catch
7B5E: CD8C98  		call	catch
7B61: CD8C98  		call	catch
7B64: CD8C98  		call	catch
7B67: CD8C98  		call	catch
7B6A: CD8C98  		call	catch
7B6D: CD8C98  		call	catch
7B70: CD8C98  		call	catch
7B73: CD8C98  		call	catch
7B76: CD8C98  		call	catch
7B79: CD8C98  		call	catch
7B7C: CD8C98  		call	catch
7B7F: CD8C98  		call	catch
7B82: CD8C98  		call	catch
7B85: CD8C98  		call	catch
7B88: CD8C98  		call	catch
7B8B: CD8C98  		call	catch
7B8E: CD8C98  		call	catch
7B91: CD8C98  		call	catch
7B94: CD8C98  		call	catch
7B97: CD8C98  		call	catch
7B9A: CD8C98  		call	catch
7B9D: CD8C98  		call	catch
7BA0: CD8C98  		call	catch
7BA3: CD8C98  		call	catch
7BA6: CD8C98  		call	catch
7BA9: CD8C98  		call	catch
7BAC: CD8C98  		call	catch
7BAF: CD8C98  		call	catch
7BB2: CD8C98  		call	catch
7BB5: CD8C98  		call	catch
7BB8: CD8C98  		call	catch
7BBB: CD8C98  		call	catch
7BBE: CD8C98  		call	catch
7BC1: CD8C98  		call	catch
7BC4: CD8C98  		call	catch
7BC7: CD8C98  		call	catch
7BCA: CD8C98  		call	catch
7BCD: CD8C98  		call	catch
7BD0: CD8C98  		call	catch
7BD3: CD8C98  		call	catch
7BD6: CD8C98  		call	catch
7BD9: CD8C98  		call	catch
7BDC: CD8C98  		call	catch
7BDF: CD8C98  		call	catch
7BE2: CD8C98  		call	catch
7BE5: CD8C98  		call	catch
7BE8: CD8C98  		call	catch
7BEB: CD8C98  		call	catch
7BEE: CD8C98  		call	catch
7BF1: CD8C98  		call	catch
7BF4: CD8C98  		call	catch
7BF7: CD8C98  		call	catch
7BFA: CD8C98  		call	catch
7BFD: CD8C98  		call	catch
7C00: CD8C98  		call	catch
7C03: CD8C98  		call	catch
7C06: CD8C98  		call	catch
7C09: CD8C98  		call	catch
7C0C: CD8C98  		call	catch
7C0F: CD8C98  		call	catch
7C12: CD8C98  		call	catch
7C15: CD8C98  		call	catch
7C18: CD8C98  		call	catch
7C1B: CD8C98  		call	catch
7C1E: CD8C98  		call	catch
7C21: CD8C98  		call	catch
7C24: CD8C98  		call	catch
7C27: CD8C98  		call	catch
7C2A: CD8C98  		call	catch
7C2D: CD8C98  		call	catch
7C30: CD8C98  		call	catch
7C33: CD8C98  		call	catch
7C36: CD8C98  		call	catch
7C39: CD8C98  		call	catch
7C3C: CD8C98  		call	catch
7C3F: CD8C98  		call	catch
7C42: CD8C98  		call	catch
7C45: CD8C98  		call	catch
7C48: CD8C98  		call	catch
7C4B: CD8C98  		call	catch
7C4E: CD8C98  		call	catch
7C51: CD8C98  		call	catch
7C54: CD8C98  		call	catch
7C57: CD8C98  		call	catch
7C5A: CD8C98  		call	catch
7C5D: CD8C98  		call	catch
7C60: CD8C98  		call	catch
7C63: CD8C98  		call	catch
7C66: CD8C98  		call	catch
7C69: CD8C98  		call	catch
7C6C: CD8C98  		call	catch
7C6F: CD8C98  		call	catch
7C72: CD8C98  		call	catch
7C75: CD8C98  		call	catch
7C78: CD8C98  		call	catch
7C7B: CD8C98  		call	catch
7C7E: CD8C98  		call	catch
7C81: CD8C98  		call	catch
7C84: CD8C98  		call	catch
7C87: CD8C98  		call	catch
7C8A: CD8C98  		call	catch
7C8D: CD8C98  		call	catch
7C90: CD8C98  		call	catch
7C93: CD8C98  		call	catch
7C96: CD8C98  		call	catch
7C99: CD8C98  		call	catch
7C9C: CD8C98  		call	catch
7C9F: CD8C98  		call	catch
7CA2: CD8C98  		call	catch
7CA5: CD8C98  		call	catch
7CA8: CD8C98  		call	catch
7CAB: CD8C98  		call	catch
7CAE: CD8C98  		call	catch
7CB1: CD8C98  		call	catch
7CB4: CD8C98  		call	catch
7CB7: CD8C98  		call	catch
7CBA: CD8C98  		call	catch
7CBD: CD8C98  		call	catch
7CC0: CD8C98  		call	catch
7CC3: CD8C98  		call	catch
7CC6: CD8C98  		call	catch
7CC9: CD8C98  		call	catch
7CCC: CD8C98  		call	catch
7CCF: CD8C98  		call	catch
7CD2: CD8C98  		call	catch
7CD5: CD8C98  		call	catch
7CD8: CD8C98  		call	catch
7CDB: CD8C98  		call	catch
7CDE: CD8C98  		call	catch
7CE1: CD8C98  		call	catch
7CE4: CD8C98  		call	catch
7CE7: CD8C98  		call	catch
7CEA: CD8C98  		call	catch
7CED: CD8C98  		call	catch
7CF0: CD8C98  		call	catch
7CF3: CD8C98  		call	catch
7CF6: CD8C98  		call	catch
7CF9: CD8C98  		call	catch
7CFC: CD8C98  		call	catch
7CFF: CD8C98  		call	catch
7D02: CD8C98  		call	catch
7D05: CD8C98  		call	catch
7D08: CD8C98  		call	catch
7D0B: CD8C98  		call	catch
7D0E: CD8C98  		call	catch
7D11: CD8C98  		call	catch
7D14: CD8C98  		call	catch
7D17: CD8C98  		call	catch
7D1A: CD8C98  		call	catch
7D1D: CD8C98  		call	catch
7D20: CD8C98  		call	catch
7D23: CD8C98  		call	catch
7D26: CD8C98  		call	catch
7D29: CD8C98  		call	catch
7D2C: CD8C98  		call	catch
7D2F: CD8C98  		call	catch
7D32: CD8C98  		call	catch
7D35: CD8C98  		call	catch
7D38: CD8C98  		call	catch
7D3B: CD8C98  		call	catch
7D3E: CD8C98  		call	catch
7D41: CD8C98  		call	catch
7D44: CD8C98  		call	catch
7D47: CD8C98  		call	catch
7D4A: CD8C98  		call	catch
7D4D: CD8C98  		call	catch
7D50: CD8C98  		call	catch
7D53: CD8C98  		call	catch
7D56: CD8C98  		call	catch
7D59: CD8C98  		call	catch
7D5C: CD8C98  		call	catch
7D5F: CD8C98  		call	catch
7D62: CD8C98  		call	catch
7D65: CD8C98  		call	catch
7D68: CD8C98  		call	catch
7D6B: CD8C98  		call	catch
7D6E: CD8C98  		call	catch
7D71: CD8C98  		call	catch
7D74: CD8C98  		call	catch
7D77: CD8C98  		call	catch
7D7A: CD8C98  		call	catch
7D7D: CD8C98  		call	catch
7D80: CD8C98  		call	catch
7D83: CD8C98  		call	catch
7D86: CD8C98  		call	catch
7D89: CD8C98  		call	catch
7D8C: CD8C98  		call	catch
7D8F: CD8C98  		call	catch
7D92: CD8C98  		call	catch
7D95: CD8C98  		call	catch
7D98: CD8C98  		call	catch
7D9B: CD8C98  		call	catch
7D9E: CD8C98  		call	catch
7DA1: CD8C98  		call	catch
7DA4: CD8C98  		call	catch
7DA7: CD8C98  		call	catch
7DAA: CD8C98  		call	catch
7DAD: CD8C98  		call	catch
7DB0: CD8C98  		call	catch
7DB3: CD8C98  		call	catch
7DB6: CD8C98  		call	catch
7DB9: CD8C98  		call	catch
7DBC: CD8C98  		call	catch
7DBF: CD8C98  		call	catch
7DC2: CD8C98  		call	catch
7DC5: CD8C98  		call	catch
7DC8: CD8C98  		call	catch
7DCB: CD8C98  		call	catch
7DCE: CD8C98  		call	catch
7DD1: CD8C98  		call	catch
7DD4: CD8C98  		call	catch
7DD7: CD8C98  		call	catch
7DDA: CD8C98  		call	catch
7DDD: CD8C98  		call	catch
7DE0: CD8C98  		call	catch
7DE3: CD8C98  		call	catch
7DE6: CD8C98  		call	catch
7DE9: CD8C98  		call	catch
7DEC: CD8C98  		call	catch
7DEF: CD8C98  		call	catch
7DF2: CD8C98  		call	catch
7DF5: CD8C98  		call	catch
7DF8: CD8C98  		call	catch
7DFB: CD8C98  		call	catch
7DFE: CD8C98  		call	catch
7E01: CD8C98  		call	catch
7E04: CD8C98  		call	catch
7E07: CD8C98  		call	catch
7E0A: CD8C98  		call	catch
7E0D: CD8C98  		call	catch
7E10: CD8C98  		call	catch
7E13: CD8C98  		call	catch
7E16: CD8C98  		call	catch
7E19: CD8C98  		call	catch
7E1C: CD8C98  		call	catch
7E1F: CD8C98  		call	catch
7E22: CD8C98  		call	catch
7E25: CD8C98  		call	catch
7E28: CD8C98  		call	catch
7E2B: CD8C98  		call	catch
7E2E: CD8C98  		call	catch
7E31: CD8C98  		call	catch
7E34: CD8C98  		call	catch
7E37: CD8C98  		call	catch
7E3A: CD8C98  		call	catch
7E3D: CD8C98  		call	catch
7E40: CD8C98  		call	catch
7E43: CD8C98  		call	catch
7E46: CD8C98  		call	catch
7E49: CD8C98  		call	catch
7E4C: CD8C98  		call	catch
7E4F: CD8C98  		call	catch
7E52: CD8C98  		call	catch
7E55: CD8C98  		call	catch
7E58: CD8C98  		call	catch
7E5B: CD8C98  		call	catch
7E5E: CD8C98  		call	catch
7E61: CD8C98  		call	catch
7E64: CD8C98  		call	catch
7E67: CD8C98  		call	catch
7E6A: CD8C98  		call	catch
7E6D: CD8C98  		call	catch
7E70: CD8C98  		call	catch
7E73: CD8C98  		call	catch
7E76: CD8C98  		call	catch
7E79: CD8C98  		call	catch
7E7C: CD8C98  		call	catch
7E7F: CD8C98  		call	catch
7E82: CD8C98  		call	catch
7E85: CD8C98  		call	catch
7E88: CD8C98  		call	catch
7E8B: CD8C98  		call	catch
7E8E: CD8C98  		call	catch
7E91: CD8C98  		call	catch
7E94: CD8C98  		call	catch
7E97: CD8C98  		call	catch
7E9A: CD8C98  		call	catch
7E9D: CD8C98  		call	catch
7EA0: CD8C98  		call	catch
7EA3: CD8C98  		call	catch
7EA6: CD8C98  		call	catch
7EA9: CD8C98  		call	catch
7EAC: CD8C98  		call	catch
7EAF: CD8C98  		call	catch
7EB2: CD8C98  		call	catch
7EB5: CD8C98  		call	catch
7EB8: CD8C98  		call	catch
7EBB: CD8C98  		call	catch
7EBE: CD8C98  		call	catch
7EC1: CD8C98  		call	catch
7EC4: CD8C98  		call	catch
7EC7: CD8C98  		call	catch
7ECA: CD8C98  		call	catch
7ECD: CD8C98  		call	catch
7ED0: CD8C98  		call	catch
7ED3: CD8C98  		call	catch
7ED6: CD8C98  		call	catch
7ED9: CD8C98  		call	catch
7EDC: CD8C98  		call	catch
7EDF: CD8C98  		call	catch
7EE2: CD8C98  		call	catch
7EE5: CD8C98  		call	catch
7EE8: CD8C98  		call	catch
7EEB: CD8C98  		call	catch
7EEE: CD8C98  		call	catch
7EF1: CD8C98  		call	catch
7EF4: CD8C98  		call	catch
7EF7: CD8C98  		call	catch
7EFA: CD8C98  		call	catch
7EFD: CD8C98  		call	catch
7F00: CD8C98  		call	catch
7F03: CD8C98  		call	catch
7F06: CD8C98  		call	catch
7F09: CD8C98  		call	catch
7F0C: CD8C98  		call	catch
7F0F: CD8C98  		call	catch
7F12: CD8C98  		call	catch
7F15: CD8C98  		call	catch
7F18: CD8C98  		call	catch
7F1B: CD8C98  		call	catch
7F1E: CD8C98  		call	catch
7F21: CD8C98  		call	catch
7F24: CD8C98  		call	catch
7F27: CD8C98  		call	catch
7F2A: CD8C98  		call	catch
7F2D: CD8C98  		call	catch
7F30: CD8C98  		call	catch
7F33: CD8C98  		call	catch
7F36: CD8C98  		call	catch
7F39: CD8C98  		call	catch
7F3C: CD8C98  		call	catch
7F3F: CD8C98  		call	catch
7F42: CD8C98  		call	catch
7F45: CD8C98  		call	catch
7F48: CD8C98  		call	catch
7F4B: CD8C98  		call	catch
7F4E: CD8C98  		call	catch
7F51: CD8C98  		call	catch
7F54: CD8C98  		call	catch
7F57: CD8C98  		call	catch
7F5A: CD8C98  		call	catch
7F5D: CD8C98  		call	catch
7F60: CD8C98  		call	catch
7F63: CD8C98  		call	catch
7F66: CD8C98  		call	catch
7F69: CD8C98  		call	catch
7F6C: CD8C98  		call	catch
7F6F: CD8C98  		call	catch
7F72: CD8C98  		call	catch
7F75: CD8C98  		call	catch
7F78: CD8C98  		call	catch
7F7B: CD8C98  		call	catch
7F7E: CD8C98  		call	catch
7F81: CD8C98  		call	catch
7F84: CD8C98  		call	catch
7F87: CD8C98  		call	catch
7F8A: CD8C98  		call	catch
7F8D: CD8C98  		call	catch
7F90: CD8C98  		call	catch
7F93: CD8C98  		call	catch
7F96: CD8C98  		call	catch
7F99: CD8C98  		call	catch
7F9C: CD8C98  		call	catch
7F9F: CD8C98  		call	catch
7FA2: CD8C98  		call	catch
7FA5: CD8C98  		call	catch
7FA8: CD8C98  		call	catch
7FAB: CD8C98  		call	catch
7FAE: CD8C98  		call	catch
7FB1: CD8C98  		call	catch
7FB4: CD8C98  		call	catch
7FB7: CD8C98  		call	catch
7FBA: CD8C98  		call	catch
7FBD: CD8C98  		call	catch
7FC0: CD8C98  		call	catch
7FC3: CD8C98  		call	catch
7FC6: CD8C98  		call	catch
7FC9: CD8C98  		call	catch
7FCC: CD8C98  		call	catch
7FCF: CD8C98  		call	catch
7FD2: CD8C98  		call	catch
7FD5: CD8C98  		call	catch
7FD8: CD8C98  		call	catch
7FDB: CD8C98  		call	catch
7FDE: CD8C98  		call	catch
7FE1: CD8C98  		call	catch
7FE4: CD8C98  		call	catch
7FE7: CD8C98  		call	catch
7FEA: CD8C98  		call	catch
7FED: CD8C98  		call	catch
7FF0: CD8C98  		call	catch
7FF3: CD8C98  		call	catch
7FF6: CD8C98  		call	catch
7FF9: CD8C98  		call	catch
7FFC: CD8C98  		call	catch
7FFF: CD8C98  		call	catch
8002: CD8C98  		call	catch
8005: CD8C98  		call	catch
8008: CD8C98  		call	catch
800B: CD8C98  		call	catch
800E: CD8C98  		call	catch
8011: CD8C98  		call	catch
8014: CD8C98  		call	catch
8017: CD8C98  		call	catch
801A: CD8C98  		call	catch
801D: CD8C98  		call	catch
8020: CD8C98  		call	catch
8023: CD8C98  		call	catch
8026: CD8C98  		call	catch
8029: CD8C98  		call	catch
802C: CD8C98  		call	catch
802F: CD8C98  		call	catch
8032: CD8C98  		call	catch
8035: CD8C98  		call	catch
8038: CD8C98  		call	catch
803B: CD8C98  		call	catch
803E: CD8C98  		call	catch
8041: CD8C98  		call	catch
8044: CD8C98  		call	catch
8047: CD8C98  		call	catch
804A: CD8C98  		call	catch
804D: CD8C98  		call	catch
8050: CD8C98  		call	catch
8053: CD8C98  		call	catch
8056: CD8C98  		call	catch
8059: CD8C98  		call	catch
805C: CD8C98  		call	catch
805F: CD8C98  		call	catch
8062: CD8C98  		call	catch
8065: CD8C98  		call	catch
8068: CD8C98  		call	catch
806B: CD8C98  		call	catch
806E: CD8C98  		call	catch
8071: CD8C98  		call	catch
8074: CD8C98  		call	catch
8077: CD8C98  		call	catch
807A: CD8C98  		call	catch
807D: CD8C98  		call	catch
8080: CD8C98  		call	catch
8083: CD8C98  		call	catch
8086: CD8C98  		call	catch
8089: CD8C98  		call	catch
808C: CD8C98  		call	catch
808F: CD8C98  		call	catch
8092: CD8C98  		call	catch
8095: CD8C98  		call	catch
8098: CD8C98  		call	catch
809B: CD8C98  		call	catch
809E: CD8C98  		call	catch
80A1: CD8C98  		call	catch
80A4: CD8C98  		call	catch
80A7: CD8C98  		call	catch
80AA: CD8C98  		call	catch
80AD: CD8C98  		call	catch
80B0: CD8C98  		call	catch
80B3: CD8C98  		call	catch
80B6: CD8C98  		call	catch
80B9: CD8C98  		call	catch
80BC: CD8C98  		call	catch
80BF: CD8C98  		call	catch
80C2: CD8C98  		call	catch
80C5: CD8C98  		call	catch
80C8: CD8C98  		call	catch
80CB: CD8C98  		call	catch
80CE: CD8C98  		call	catch
80D1: CD8C98  		call	catch
80D4: CD8C98  		call	catch
80D7: CD8C98  		call	catch
80DA: CD8C98  		call	catch
80DD: CD8C98  		call	catch
80E0: CD8C98  		call	catch
80E3: CD8C98  		call	catch
80E6: CD8C98  		call	catch
80E9: CD8C98  		call	catch
80EC: CD8C98  		call	catch
80EF: CD8C98  		call	catch
80F2: CD8C98  		call	catch
80F5: CD8C98  		call	catch
80F8: CD8C98  		call	catch
80FB: CD8C98  		call	catch
80FE: CD8C98  		call	catch
8101: CD8C98  		call	catch
8104: CD8C98  		call	catch
8107: CD8C98  		call	catch
810A: CD8C98  		call	catch
810D: CD8C98  		call	catch
8110: CD8C98  		call	catch
8113: CD8C98  		call	catch
8116: CD8C98  		call	catch
8119: CD8C98  		call	catch
811C: CD8C98  		call	catch
811F: CD8C98  		call	catch
8122: CD8C98  		call	catch
8125: CD8C98  		call	catch
8128: CD8C98  		call	catch
812B: CD8C98  		call	catch
812E: CD8C98  		call	catch
8131: CD8C98  		call	catch
8134: CD8C98  		call	catch
8137: CD8C98  		call	catch
813A: CD8C98  		call	catch
813D: CD8C98  		call	catch
8140: CD8C98  		call	catch
8143: CD8C98  		call	catch
8146: CD8C98  		call	catch
8149: CD8C98  		call	catch
814C: CD8C98  		call	catch
814F: CD8C98  		call	catch
8152: CD8C98  		call	catch
8155: CD8C98  		call	catch
8158: CD8C98  		call	catch
815B: CD8C98  		call	catch
815E: CD8C98  		call	catch
8161: CD8C98  		call	catch
8164: CD8C98  		call	catch
8167: CD8C98  		call	catch
816A: CD8C98  		call	catch
816D: CD8C98  		call	catch
8170: CD8C98  		call	catch
8173: CD8C98  		call	catch
8176: CD8C98  		call	catch
8179: CD8C98  		call	catch
817C: CD8C98  		call	catch
817F: CD8C98  		call	catch
8182: CD8C98  		call	catch
8185: CD8C98  		call	catch
8188: CD8C98  		call	catch
818B: CD8C98  		call	catch
818E: CD8C98  		call	catch
8191: CD8C98  		call	catch
8194: CD8C98  		call	catch
8197: CD8C98  		call	catch
819A: CD8C98  		call	catch
819D: CD8C98  		call	catch
81A0: CD8C98  		call	catch
81A3: CD8C98  		call	catch
81A6: CD8C98  		call	catch
81A9: CD8C98  		call	catch
81AC: CD8C98  		call	catch
81AF: CD8C98  		call	catch
81B2: CD8C98  		call	catch
81B5: CD8C98  		call	catch
81B8: CD8C98  		call	catch
81BB: CD8C98  		call	catch
81BE: CD8C98  		call	catch
81C1: CD8C98  		call	catch
81C4: CD8C98  		call	catch
81C7: CD8C98  		call	catch
81CA: CD8C98  		call	catch
81CD: CD8C98  		call	catch
81D0: CD8C98  		call	catch
81D3: CD8C98  		call	catch
81D6: CD8C98  		call	catch
81D9: CD8C98  		call	catch
81DC: CD8C98  		call	catch
81DF: CD8C98  		call	catch
81E2: CD8C98  		call	catch
81E5: CD8C98  		call	catch
81E8: CD8C98  		call	catch
81EB: CD8C98  		call	catch
81EE: CD8C98  		call	catch
81F1: CD8C98  		call	catch
81F4: CD8C98  		call	catch
81F7: CD8C98  		call	catch
81FA: CD8C98  		call	catch
81FD: CD8C98  		call	catch
8200: CD8C98  		call	catch
8203: CD8C98  		call	catch
8206: CD8C98  		call	catch
8209: CD8C98  		call	catch
820C: CD8C98  		call	catch
820F: CD8C98  		call	catch
8212: CD8C98  		call	catch
8215: CD8C98  		call	catch
8218: CD8C98  		call	catch
821B: CD8C98  		call	catch
821E: CD8C98  		call	catch
8221: CD8C98  		call	catch
8224: CD8C98  		call	catch
8227: CD8C98  		call	catch
822A: CD8C98  		call	catch
822D: CD8C98  		call	catch
8230: CD8C98  		call	catch
8233: CD8C98  		call	catch
8236: CD8C98  		call	catch
8239: CD8C98  		call	catch
823C: CD8C98  		call	catch
823F: CD8C98  		call	catch
8242: CD8C98  		call	catch
8245: CD8C98  		call	catch
8248: CD8C98  		call	catch
824B: CD8C98  		call	catch
824E: CD8C98  		call	catch
8251: CD8C98  		call	catch
8254: CD8C98  		call	catch
8257: CD8C98  		call	catch
825A: CD8C98  		call	catch
825D: CD8C98  		call	catch
8260: CD8C98  		call	catch
8263: CD8C98  		call	catch
8266: CD8C98  		call	catch
8269: CD8C98  		call	catch
826C: CD8C98  		call	catch
826F: CD8C98  		call	catch
8272: CD8C98  		call	catch
8275: CD8C98  		call	catch
8278: CD8C98  		call	catch
827B: CD8C98  		call	catch
827E: CD8C98  		call	catch
8281: CD8C98  		call	catch
8284: CD8C98  		call	catch
8287: CD8C98  		call	catch
828A: CD8C98  		call	catch
828D: CD8C98  		call	catch
8290: CD8C98  		call	catch
8293: CD8C98  		call	catch
8296: CD8C98  		call	catch
8299: CD8C98  		call	catch
829C: CD8C98  		call	catch
829F: CD8C98  		call	catch
82A2: CD8C98  		call	catch
82A5: CD8C98  		call	catch
82A8: CD8C98  		call	catch
82AB: CD8C98  		call	catch
82AE: CD8C98  		call	catch
82B1: CD8C98  		call	catch
82B4: CD8C98  		call	catch
82B7: CD8C98  		call	catch
82BA: CD8C98  		call	catch
82BD: CD8C98  		call	catch
82C0: CD8C98  		call	catch
82C3: CD8C98  		call	catch
82C6: CD8C98  		call	catch
82C9: CD8C98  		call	catch
82CC: CD8C98  		call	catch
82CF: CD8C98  		call	catch
82D2: CD8C98  		call	catch
82D5: CD8C98  		call	catch
82D8: CD8C98  		call	catch
82DB: CD8C98  		call	catch
82DE: CD8C98  		call	catch
82E1: CD8C98  		call	catch
82E4: CD8C98  		call	catch
82E7: CD8C98  		call	catch
82EA: CD8C98  		call	catch
82ED: CD8C98  		call	catch
82F0: CD8C98  		call	catch
82F3: CD8C98  		call	catch
82F6: CD8C98  		call	catch
82F9: CD8C98  		call	catch
82FC: CD8C98  		call	catch
82FF: CD8C98  		call	catch
8302: CD8C98  		call	catch
8305: CD8C98  		call	catch
8308: CD8C98  		call	catch
830B: CD8C98  		call	catch
830E: CD8C98  		call	catch
8311: CD8C98  		call	catch
8314: CD8C98  		call	catch
8317: CD8C98  		call	catch
831A: CD8C98  		call	catch
831D: CD8C98  		call	catch
8320: CD8C98  		call	catch
8323: CD8C98  		call	catch
8326: CD8C98  		call	catch
8329: CD8C98  		call	catch
832C: CD8C98  		call	catch
832F: CD8C98  		call	catch
8332: CD8C98  		call	catch
8335: CD8C98  		call	catch
8338: CD8C98  		call	catch
833B: CD8C98  		call	catch
833E: CD8C98  		call	catch
8341: CD8C98  		call	catch
8344: CD8C98  		call	catch
8347: CD8C98  		call	catch
834A: CD8C98  		call	catch
834D: CD8C98  		call	catch
8350: CD8C98  		call	catch
8353: CD8C98  		call	catch
8356: CD8C98  		call	catch
8359: CD8C98  		call	catch
835C: CD8C98  		call	catch
835F: CD8C98  		call	catch
8362: CD8C98  		call	catch
8365: CD8C98  		call	catch
8368: CD8C98  		call	catch
836B: CD8C98  		call	catch
836E: CD8C98  		call	catch
8371: CD8C98  		call	catch
8374: CD8C98  		call	catch
8377: CD8C98  		call	catch
837A: CD8C98  		call	catch
837D: CD8C98  		call	catch
8380: CD8C98  		call	catch
8383: CD8C98  		call	catch
8386: CD8C98  		call	catch
8389: CD8C98  		call	catch
838C: CD8C98  		call	catch
838F: CD8C98  		call	catch
8392: CD8C98  		call	catch
8395: CD8C98  		call	catch
8398: CD8C98  		call	catch
839B: CD8C98  		call	catch
839E: CD8C98  		call	catch
83A1: CD8C98  		call	catch
83A4: CD8C98  		call	catch
83A7: CD8C98  		call	catch
83AA: CD8C98  		call	catch
83AD: CD8C98  		call	catch
83B0: CD8C98  		call	catch
83B3: CD8C98  		call	catch
83B6: CD8C98  		call	catch
83B9: CD8C98  		call	catch
83BC: CD8C98  		call	catch
83BF: CD8C98  		call	catch
83C2: CD8C98  		call	catch
83C5: CD8C98  		call	catch
83C8: CD8C98  		call	catch
83CB: CD8C98  		call	catch
83CE: CD8C98  		call	catch
83D1: CD8C98  		call	catch
83D4: CD8C98  		call	catch
83D7: CD8C98  		call	catch
83DA: CD8C98  		call	catch
83DD: CD8C98  		call	catch
83E0: CD8C98  		call	catch
83E3: CD8C98  		call	catch
83E6: CD8C98  		call	catch
83E9: CD8C98  		call	catch
83EC: CD8C98  		call	catch
83EF: CD8C98  		call	catch
83F2: CD8C98  		call	catch
83F5: CD8C98  		call	catch
83F8: CD8C98  		call	catch
83FB: CD8C98  		call	catch
83FE: CD8C98  		call	catch
8401: CD8C98  		call	catch
8404: CD8C98  		call	catch
8407: CD8C98  		call	catch
840A: CD8C98  		call	catch
840D: CD8C98  		call	catch
8410: CD8C98  		call	catch
8413: CD8C98  		call	catch
8416: CD8C98  		call	catch
8419: CD8C98  		call	catch
841C: CD8C98  		call	catch
841F: CD8C98  		call	catch
8422: CD8C98  		call	catch
8425: CD8C98  		call	catch
8428: CD8C98  		call	catch
842B: CD8C98  		call	catch
842E: CD8C98  		call	catch
8431: CD8C98  		call	catch
8434: CD8C98  		call	catch
8437: CD8C98  		call	catch
843A: CD8C98  		call	catch
843D: CD8C98  		call	catch
8440: CD8C98  		call	catch
8443: CD8C98  		call	catch
8446: CD8C98  		call	catch
8449: CD8C98  		call	catch
844C: CD8C98  		call	catch
844F: CD8C98  		call	catch
8452: CD8C98  		call	catch
8455: CD8C98  		call	catch
8458: CD8C98  		call	catch
845B: CD8C98  		call	catch
845E: CD8C98  		call	catch
8461: CD8C98  		call	catch
8464: CD8C98  		call	catch
8467: CD8C98  		call	catch
846A: CD8C98  		call	catch
846D: CD8C98  		call	catch
8470: CD8C98  		call	catch
8473: CD8C98  		call	catch
8476: CD8C98  		call	catch
8479: CD8C98  		call	catch
847C: CD8C98  		call	catch
847F: CD8C98  		call	catch
8482: CD8C98  		call	catch
8485: CD8C98  		call	catch
8488: CD8C98  		call	catch
848B: CD8C98  		call	catch
848E: CD8C98  		call	catch
8491: CD8C98  		call	catch
8494: CD8C98  		call	catch
8497: CD8C98  		call	catch
849A: CD8C98  		call	catch
849D: CD8C98  		call	catch
84A0: CD8C98  		call	catch
84A3: CD8C98  		call	catch
84A6: CD8C98  		call	catch
84A9: CD8C98  		call	catch
84AC: CD8C98  		call	catch
84AF: CD8C98  		call	catch
84B2: CD8C98  		call	catch
84B5: CD8C98  		call	catch
84B8: CD8C98  		call	catch
84BB: CD8C98  		call	catch
84BE: CD8C98  		call	catch
84C1: CD8C98  		call	catch
84C4: CD8C98  		call	catch
84C7: CD8C98  		call	catch
84CA: CD8C98  		call	catch
84CD: CD8C98  		call	catch
84D0: CD8C98  		call	catch
84D3: CD8C98  		call	catch
84D6: CD8C98  		call	catch
84D9: CD8C98  		call	catch
84DC: CD8C98  		call	catch
84DF: CD8C98  		call	catch
84E2: CD8C98  		call	catch
84E5: CD8C98  		call	catch
84E8: CD8C98  		call	catch
84EB: CD8C98  		call	catch
84EE: CD8C98  		call	catch
84F1: CD8C98  		call	catch
84F4: CD8C98  		call	catch
84F7: CD8C98  		call	catch
84FA: CD8C98  		call	catch
84FD: CD8C98  		call	catch
8500: CD8C98  		call	catch
8503: CD8C98  		call	catch
8506: CD8C98  		call	catch
8509: CD8C98  		call	catch
850C: CD8C98  		call	catch
850F: CD8C98  		call	catch
8512: CD8C98  			call	catch
8515: CD8C98  		call	catch
8518: CD8C98  		call	catch
851B: CD8C98  		call	catch
851E: CD8C98  		call	catch
8521: CD8C98  		call	catch
8524: CD8C98  		call	catch
8527: CD8C98  		call	catch
852A: CD8C98  		call	catch
852D: CD8C98  		call	catch
8530: CD8C98  		call	catch
8533: CD8C98  		call	catch
8536: CD8C98  		call	catch
8539: CD8C98  		call	catch
853C: CD8C98  		call	catch
853F: CD8C98  		call	catch
8542: CD8C98  		call	catch
8545: CD8C98  		call	catch
8548: CD8C98  		call	catch
854B: CD8C98  		call	catch
854E: CD8C98  		call	catch
8551: CD8C98  		call	catch
8554: CD8C98  		call	catch
8557: CD8C98  		call	catch
855A: CD8C98  		call	catch
855D: CD8C98  		call	catch
8560: CD8C98  		call	catch
8563: CD8C98  		call	catch
8566: CD8C98  		call	catch
8569: CD8C98  		call	catch
856C: CD8C98  		call	catch
856F: CD8C98  		call	catch
8572: CD8C98  		call	catch
8575: CD8C98  		call	catch
8578: CD8C98  		call	catch
857B: CD8C98  		call	catch
857E: CD8C98  		call	catch
8581: CD8C98  		call	catch
8584: CD8C98  		call	catch
8587: CD8C98  		call	catch
858A: CD8C98  		call	catch
858D: CD8C98  		call	catch
8590: CD8C98  		call	catch
8593: CD8C98  		call	catch
8596: CD8C98  		call	catch
8599: CD8C98  		call	catch
859C: CD8C98  		call	catch
859F: CD8C98  		call	catch
85A2: CD8C98  		call	catch
85A5: CD8C98  		call	catch
85A8: CD8C98  		call	catch
85AB: CD8C98  		call	catch
85AE: CD8C98  		call	catch
85B1: CD8C98  		call	catch
85B4: CD8C98  		call	catch
85B7: CD8C98  		call	catch
85BA: CD8C98  		call	catch
85BD: CD8C98  		call	catch
85C0: CD8C98  		call	catch
85C3: CD8C98  		call	catch
85C6: CD8C98  		call	catch
85C9: CD8C98  		call	catch
85CC: CD8C98  		call	catch
85CF: CD8C98  		call	catch
85D2: CD8C98  		call	catch
85D5: CD8C98  		call	catch
85D8: CD8C98  		call	catch
85DB: CD8C98  		call	catch
85DE: CD8C98  		call	catch
85E1: CD8C98  		call	catch
85E4: CD8C98  		call	catch
85E7: CD8C98  		call	catch
85EA: CD8C98  		call	catch
85ED: CD8C98  		call	catch
85F0: CD8C98  		call	catch
85F3: CD8C98  		call	catch
85F6: CD8C98  		call	catch
85F9: CD8C98  		call	catch
85FC: CD8C98  		call	catch
85FF: CD8C98  		call	catch
8602: CD8C98  		call	catch
8605: CD8C98  		call	catch
8608: CD8C98  		call	catch
860B: CD8C98  		call	catch
860E: CD8C98  		call	catch
8611: CD8C98  		call	catch
8614: CD8C98  		call	catch
8617: CD8C98  		call	catch
861A: CD8C98  		call	catch
861D: CD8C98  		call	catch
8620: CD8C98  		call	catch
8623: CD8C98  		call	catch
8626: CD8C98  		call	catch
8629: CD8C98  		call	catch
862C: CD8C98  		call	catch
862F: CD8C98  		call	catch
8632: CD8C98  		call	catch
8635: CD8C98  		call	catch
8638: CD8C98  		call	catch
863B: CD8C98  		call	catch
863E: CD8C98  		call	catch
8641: CD8C98  		call	catch
8644: CD8C98  		call	catch
8647: CD8C98  		call	catch
864A: CD8C98  		call	catch
864D: CD8C98  		call	catch
8650: CD8C98  		call	catch
8653: CD8C98  		call	catch
8656: CD8C98  		call	catch
8659: CD8C98  		call	catch
865C: CD8C98  		call	catch
865F: CD8C98  		call	catch
8662: CD8C98  		call	catch
8665: CD8C98  		call	catch
8668: CD8C98  		call	catch
866B: CD8C98  		call	catch
866E: CD8C98  		call	catch
8671: CD8C98  		call	catch
8674: CD8C98  		call	catch
8677: CD8C98  		call	catch
867A: CD8C98  		call	catch
867D: CD8C98  		call	catch
8680: CD8C98  		call	catch
8683: CD8C98  		call	catch
8686: CD8C98  		call	catch
8689: CD8C98  		call	catch
868C: CD8C98  		call	catch
868F: CD8C98  		call	catch
8692: CD8C98  		call	catch
8695: CD8C98  		call	catch
8698: CD8C98  		call	catch
869B: CD8C98  		call	catch
869E: CD8C98  		call	catch
86A1: CD8C98  		call	catch
86A4: CD8C98  		call	catch
86A7: CD8C98  		call	catch
86AA: CD8C98  		call	catch
86AD: CD8C98  		call	catch
86B0: CD8C98  		call	catch
86B3: CD8C98  		call	catch
86B6: CD8C98  		call	catch
86B9: CD8C98  		call	catch
86BC: CD8C98  		call	catch
86BF: CD8C98  		call	catch
86C2: CD8C98  		call	catch
86C5: CD8C98  		call	catch
86C8: CD8C98  		call	catch
86CB: CD8C98  		call	catch
86CE: CD8C98  		call	catch
86D1: CD8C98  		call	catch
86D4: CD8C98  		call	catch
86D7: CD8C98  		call	catch
86DA: CD8C98  		call	catch
86DD: CD8C98  		call	catch
86E0: CD8C98  		call	catch
86E3: CD8C98  		call	catch
86E6: CD8C98  		call	catch
86E9: CD8C98  		call	catch
86EC: CD8C98  		call	catch
86EF: CD8C98  		call	catch
86F2: CD8C98  		call	catch
86F5: CD8C98  		call	catch
86F8: CD8C98  		call	catch
86FB: CD8C98  		call	catch
86FE: CD8C98  		call	catch
8701: CD8C98  		call	catch
8704: CD8C98  		call	catch
8707: CD8C98  		call	catch
870A: CD8C98  		call	catch
870D: CD8C98  		call	catch
8710: CD8C98  		call	catch
8713: CD8C98  		call	catch
8716: CD8C98  		call	catch
8719: CD8C98  		call	catch
871C: CD8C98  		call	catch
871F: CD8C98  		call	catch
8722: CD8C98  		call	catch
8725: CD8C98  		call	catch
8728: CD8C98  		call	catch
872B: CD8C98  		call	catch
872E: CD8C98  		call	catch
8731: CD8C98  		call	catch
8734: CD8C98  		call	catch
8737: CD8C98  		call	catch
873A: CD8C98  		call	catch
873D: CD8C98  		call	catch
8740: CD8C98  		call	catch
8743: CD8C98  		call	catch
8746: CD8C98  		call	catch
8749: CD8C98  		call	catch
874C: CD8C98  		call	catch
874F: CD8C98  		call	catch
8752: CD8C98  		call	catch
8755: CD8C98  		call	catch
8758: CD8C98  		call	catch
875B: CD8C98  		call	catch
875E: CD8C98  		call	catch
8761: CD8C98  		call	catch
8764: CD8C98  		call	catch
8767: CD8C98  		call	catch
876A: CD8C98  		call	catch
876D: CD8C98  		call	catch
8770: CD8C98  		call	catch
8773: CD8C98  		call	catch
8776: CD8C98  		call	catch
8779: CD8C98  		call	catch
877C: CD8C98  		call	catch
877F: CD8C98  		call	catch
8782: CD8C98  		call	catch
8785: CD8C98  		call	catch
8788: CD8C98  		call	catch
878B: CD8C98  		call	catch
878E: CD8C98  		call	catch
8791: CD8C98  		call	catch
8794: CD8C98  		call	catch
8797: CD8C98  		call	catch
879A: CD8C98  		call	catch
879D: CD8C98  		call	catch
87A0: CD8C98  		call	catch
87A3: CD8C98  		call	catch
87A6: CD8C98  		call	catch
87A9: CD8C98  		call	catch
87AC: CD8C98  		call	catch
87AF: CD8C98  		call	catch
87B2: CD8C98  		call	catch
87B5: CD8C98  		call	catch
87B8: CD8C98  		call	catch
87BB: CD8C98  		call	catch
87BE: CD8C98  		call	catch
87C1: CD8C98  		call	catch
87C4: CD8C98  		call	catch
87C7: CD8C98  		call	catch
87CA: CD8C98  		call	catch
87CD: CD8C98  		call	catch
87D0: CD8C98  		call	catch
87D3: CD8C98  		call	catch
87D6: CD8C98  		call	catch
87D9: CD8C98  		call	catch
87DC: CD8C98  		call	catch
87DF: CD8C98  		call	catch
87E2: CD8C98  		call	catch
87E5: CD8C98  		call	catch
87E8: CD8C98  		call	catch
87EB: CD8C98  		call	catch
87EE: CD8C98  		call	catch
87F1: CD8C98  		call	catch
87F4: CD8C98  		call	catch
87F7: CD8C98  		call	catch
87FA: CD8C98  		call	catch
87FD: CD8C98  		call	catch
8800: CD8C98  		call	catch
8803: CD8C98  		call	catch
8806: CD8C98  		call	catch
8809: CD8C98  		call	catch
880C: CD8C98  		call	catch
880F: CD8C98  		call	catch
8812: CD8C98  		call	catch
8815: CD8C98  		call	catch
8818: CD8C98  		call	catch
881B: CD8C98  		call	catch
881E: CD8C98  		call	catch
8821: CD8C98  		call	catch
8824: CD8C98  		call	catch
8827: CD8C98  		call	catch
882A: CD8C98  		call	catch
882D: CD8C98  		call	catch
8830: CD8C98  		call	catch
8833: CD8C98  		call	catch
8836: CD8C98  		call	catch
8839: CD8C98  		call	catch
883C: CD8C98  		call	catch
883F: CD8C98  		call	catch
8842: CD8C98  		call	catch
8845: CD8C98  		call	catch
8848: CD8C98  		call	catch
884B: CD8C98  		call	catch
884E: CD8C98  		call	catch
8851: CD8C98  		call	catch
8854: CD8C98  		call	catch
8857: CD8C98  		call	catch
885A: CD8C98  		call	catch
885D: CD8C98  		call	catch
8860: CD8C98  		call	catch
8863: CD8C98  		call	catch
8866: CD8C98  		call	catch
8869: CD8C98  		call	catch
886C: CD8C98  		call	catch
886F: CD8C98  		call	catch
8872: CD8C98  		call	catch
8875: CD8C98  		call	catch
8878: CD8C98  		call	catch
887B: CD8C98  		call	catch
887E: CD8C98  		call	catch
8881: CD8C98  		call	catch
8884: CD8C98  		call	catch
8887: CD8C98  		call	catch
888A: CD8C98  		call	catch
888D: CD8C98  		call	catch
8890: CD8C98  		call	catch
8893: CD8C98  		call	catch
8896: CD8C98  		call	catch
8899: CD8C98  		call	catch
889C: CD8C98  		call	catch
889F: CD8C98  		call	catch
88A2: CD8C98  		call	catch
88A5: CD8C98  		call	catch
88A8: CD8C98  		call	catch
88AB: CD8C98  		call	catch
88AE: CD8C98  		call	catch
88B1: CD8C98  		call	catch
88B4: CD8C98  		call	catch
88B7: CD8C98  		call	catch
88BA: CD8C98  		call	catch
88BD: CD8C98  		call	catch
88C0: CD8C98  		call	catch
88C3: CD8C98  		call	catch
88C6: CD8C98  		call	catch
88C9: CD8C98  		call	catch
88CC: CD8C98  		call	catch
88CF: CD8C98  		call	catch
88D2: CD8C98  		call	catch
88D5: CD8C98  		call	catch
88D8: CD8C98  		call	catch
88DB: CD8C98  		call	catch
88DE: CD8C98  		call	catch
88E1: CD8C98  		call	catch
88E4: CD8C98  		call	catch
88E7: CD8C98  		call	catch
88EA: CD8C98  		call	catch
88ED: CD8C98  		call	catch
88F0: CD8C98  		call	catch
88F3: CD8C98  		call	catch
88F6: CD8C98  		call	catch
88F9: CD8C98  		call	catch
88FC: CD8C98  		call	catch
88FF: CD8C98  		call	catch
8902: CD8C98  		call	catch
8905: CD8C98  		call	catch
8908: CD8C98  		call	catch
890B: CD8C98  		call	catch
890E: CD8C98  		call	catch
8911: CD8C98  		call	catch
8914: CD8C98  		call	catch
8917: CD8C98  		call	catch
891A: CD8C98  		call	catch
891D: CD8C98  		call	catch
8920: CD8C98  		call	catch
8923: CD8C98  		call	catch
8926: CD8C98  		call	catch
8929: CD8C98  		call	catch
892C: CD8C98  		call	catch
892F: CD8C98  		call	catch
8932: CD8C98  		call	catch
8935: CD8C98  		call	catch
8938: CD8C98  		call	catch
893B: CD8C98  		call	catch
893E: CD8C98  		call	catch
8941: CD8C98  		call	catch
8944: CD8C98  		call	catch
8947: CD8C98  		call	catch
894A: CD8C98  		call	catch
894D: CD8C98  		call	catch
8950: CD8C98  		call	catch
8953: CD8C98  		call	catch
8956: CD8C98  		call	catch
8959: CD8C98  		call	catch
895C: CD8C98  		call	catch
895F: CD8C98  		call	catch
8962: CD8C98  		call	catch
8965: CD8C98  		call	catch
8968: CD8C98  		call	catch
896B: CD8C98  		call	catch
896E: CD8C98  		call	catch
8971: CD8C98  		call	catch
8974: CD8C98  		call	catch
8977: CD8C98  		call	catch
897A: CD8C98  		call	catch
897D: CD8C98  		call	catch
8980: CD8C98  		call	catch
8983: CD8C98  		call	catch
8986: CD8C98  		call	catch
8989: CD8C98  		call	catch
898C: CD8C98  		call	catch
898F: CD8C98  		call	catch
8992: CD8C98  		call	catch
8995: CD8C98  		call	catch
8998: CD8C98  		call	catch
899B: CD8C98  		call	catch
899E: CD8C98  		call	catch
89A1: CD8C98  		call	catch
89A4: CD8C98  		call	catch
89A7: CD8C98  		call	catch
89AA: CD8C98  		call	catch
89AD: CD8C98  		call	catch
89B0: CD8C98  		call	catch
89B3: CD8C98  		call	catch
89B6: CD8C98  		call	catch
89B9: CD8C98  		call	catch
89BC: CD8C98  		call	catch
89BF: CD8C98  		call	catch
89C2: CD8C98  		call	catch
89C5: CD8C98  		call	catch
89C8: CD8C98  		call	catch
89CB: CD8C98  		call	catch
89CE: CD8C98  		call	catch
89D1: CD8C98  		call	catch
89D4: CD8C98  		call	catch
89D7: CD8C98  		call	catch
89DA: CD8C98  		call	catch
89DD: CD8C98  		call	catch
89E0: CD8C98  		call	catch
89E3: CD8C98  		call	catch
89E6: CD8C98  		call	catch
89E9: CD8C98  		call	catch
89EC: CD8C98  		call	catch
89EF: CD8C98  		call	catch
89F2: CD8C98  		call	catch
89F5: CD8C98  		call	catch
89F8: CD8C98  		call	catch
89FB: CD8C98  		call	catch
89FE: CD8C98  		call	catch
8A01: CD8C98  		call	catch
8A04: CD8C98  		call	catch
8A07: CD8C98  		call	catch
8A0A: CD8C98  		call	catch
8A0D: CD8C98  		call	catch
8A10: CD8C98  		call	catch
8A13: CD8C98  		call	catch
8A16: CD8C98  		call	catch
8A19: CD8C98  		call	catch
8A1C: CD8C98  		call	catch
8A1F: CD8C98  		call	catch
8A22: CD8C98  		call	catch
8A25: CD8C98  		call	catch
8A28: CD8C98  		call	catch
8A2B: CD8C98  		call	catch
8A2E: CD8C98  		call	catch
8A31: CD8C98  		call	catch
8A34: CD8C98  		call	catch
8A37: CD8C98  		call	catch
8A3A: CD8C98  		call	catch
8A3D: CD8C98  		call	catch
8A40: CD8C98  		call	catch
8A43: CD8C98  		call	catch
8A46: CD8C98  		call	catch
8A49: CD8C98  		call	catch
8A4C: CD8C98  		call	catch
8A4F: CD8C98  		call	catch
8A52: CD8C98  		call	catch
8A55: CD8C98  		call	catch
8A58: CD8C98  		call	catch
8A5B: CD8C98  		call	catch
8A5E: CD8C98  		call	catch
8A61: CD8C98  		call	catch
8A64: CD8C98  		call	catch
8A67: CD8C98  		call	catch
8A6A: CD8C98  		call	catch
8A6D: CD8C98  		call	catch
8A70: CD8C98  		call	catch
8A73: CD8C98  		call	catch
8A76: CD8C98  		call	catch
8A79: CD8C98  		call	catch
8A7C: CD8C98  		call	catch
8A7F: CD8C98  		call	catch
8A82: CD8C98  		call	catch
8A85: CD8C98  		call	catch
8A88: CD8C98  		call	catch
8A8B: CD8C98  		call	catch
8A8E: CD8C98  		call	catch
8A91: CD8C98  		call	catch
8A94: CD8C98  		call	catch
8A97: CD8C98  		call	catch
8A9A: CD8C98  		call	catch
8A9D: CD8C98  		call	catch
8AA0: CD8C98  		call	catch
8AA3: CD8C98  		call	catch
8AA6: CD8C98  		call	catch
8AA9: CD8C98  		call	catch
8AAC: CD8C98  		call	catch
8AAF: CD8C98  		call	catch
8AB2: CD8C98  		call	catch
8AB5: CD8C98  		call	catch
8AB8: CD8C98  		call	catch
8ABB: CD8C98  		call	catch
8ABE: CD8C98  		call	catch
8AC1: CD8C98  		call	catch
8AC4: CD8C98  		call	catch
8AC7: CD8C98  		call	catch
8ACA: CD8C98  		call	catch
8ACD: CD8C98  		call	catch
8AD0: CD8C98  		call	catch
8AD3: CD8C98  		call	catch
8AD6: CD8C98  		call	catch
8AD9: CD8C98  		call	catch
8ADC: CD8C98  		call	catch
8ADF: CD8C98  		call	catch
8AE2: CD8C98  		call	catch
8AE5: CD8C98  		call	catch
8AE8: CD8C98  		call	catch
8AEB: CD8C98  		call	catch
8AEE: CD8C98  		call	catch
8AF1: CD8C98  		call	catch
8AF4: CD8C98  		call	catch
8AF7: CD8C98  		call	catch
8AFA: CD8C98  		call	catch
8AFD: CD8C98  		call	catch
8B00: CD8C98  		call	catch
8B03: CD8C98  		call	catch
8B06: CD8C98  		call	catch
8B09: CD8C98  		call	catch
8B0C: CD8C98  		call	catch
8B0F: CD8C98  		call	catch
8B12: CD8C98  		call	catch
8B15: CD8C98  		call	catch
8B18: CD8C98  		call	catch
8B1B: CD8C98  		call	catch
8B1E: CD8C98  		call	catch
8B21: CD8C98  		call	catch
8B24: CD8C98  		call	catch
8B27: CD8C98  		call	catch
8B2A: CD8C98  		call	catch
8B2D: CD8C98  		call	catch
8B30: CD8C98  		call	catch
8B33: CD8C98  		call	catch
8B36: CD8C98  		call	catch
8B39: CD8C98  		call	catch
8B3C: CD8C98  		call	catch
8B3F: CD8C98  		call	catch
8B42: CD8C98  		call	catch
8B45: CD8C98  		call	catch
8B48: CD8C98  		call	catch
8B4B: CD8C98  		call	catch
8B4E: CD8C98  		call	catch
8B51: CD8C98  		call	catch
8B54: CD8C98  		call	catch
8B57: CD8C98  		call	catch
8B5A: CD8C98  		call	catch
8B5D: CD8C98  		call	catch
8B60: CD8C98  		call	catch
8B63: CD8C98  		call	catch
8B66: CD8C98  		call	catch
8B69: CD8C98  		call	catch
8B6C: CD8C98  		call	catch
8B6F: CD8C98  		call	catch
8B72: CD8C98  		call	catch
8B75: CD8C98  		call	catch
8B78: CD8C98  		call	catch
8B7B: CD8C98  		call	catch
8B7E: CD8C98  		call	catch
8B81: CD8C98  		call	catch
8B84: CD8C98  		call	catch
8B87: CD8C98  		call	catch
8B8A: CD8C98  		call	catch
8B8D: CD8C98  		call	catch
8B90: CD8C98  		call	catch
8B93: CD8C98  		call	catch
8B96: CD8C98  		call	catch
8B99: CD8C98  		call	catch
8B9C: CD8C98  		call	catch
8B9F: CD8C98  		call	catch
8BA2: CD8C98  		call	catch
8BA5: CD8C98  		call	catch
8BA8: CD8C98  		call	catch
8BAB: CD8C98  		call	catch
8BAE: CD8C98  		call	catch
8BB1: CD8C98  		call	catch
8BB4: CD8C98  		call	catch
8BB7: CD8C98  		call	catch
8BBA: CD8C98  		call	catch
8BBD: CD8C98  		call	catch
8BC0: CD8C98  		call	catch
8BC3: CD8C98  		call	catch
8BC6: CD8C98  		call	catch
8BC9: CD8C98  		call	catch
8BCC: CD8C98  		call	catch
8BCF: CD8C98  		call	catch
8BD2: CD8C98  		call	catch
8BD5: CD8C98  		call	catch
8BD8: CD8C98  		call	catch
8BDB: CD8C98  		call	catch
8BDE: CD8C98  		call	catch
8BE1: CD8C98  		call	catch
8BE4: CD8C98  		call	catch
8BE7: CD8C98  		call	catch
8BEA: CD8C98  		call	catch
8BED: CD8C98  		call	catch
8BF0: CD8C98  		call	catch
8BF3: CD8C98  		call	catch
8BF6: CD8C98  		call	catch
8BF9: CD8C98  		call	catch
8BFC: CD8C98  		call	catch
8BFF: CD8C98  		call	catch
8C02: CD8C98  		call	catch
8C05: CD8C98  		call	catch
8C08: CD8C98  		call	catch
8C0B: CD8C98  		call	catch
8C0E: CD8C98  		call	catch
8C11: CD8C98  		call	catch
8C14: CD8C98  		call	catch
8C17: CD8C98  		call	catch
8C1A: CD8C98  		call	catch
8C1D: CD8C98  		call	catch
8C20: CD8C98  		call	catch
8C23: CD8C98  		call	catch
8C26: CD8C98  		call	catch
8C29: CD8C98  		call	catch
8C2C: CD8C98  		call	catch
8C2F: CD8C98  		call	catch
8C32: CD8C98  		call	catch
8C35: CD8C98  		call	catch
8C38: CD8C98  		call	catch
8C3B: CD8C98  		call	catch
8C3E: CD8C98  		call	catch
8C41: CD8C98  		call	catch
8C44: CD8C98  		call	catch
8C47: CD8C98  		call	catch
8C4A: CD8C98  		call	catch
8C4D: CD8C98  		call	catch
8C50: CD8C98  		call	catch
8C53: CD8C98  		call	catch
8C56: CD8C98  		call	catch
8C59: CD8C98  		call	catch
8C5C: CD8C98  		call	catch
8C5F: CD8C98  		call	catch
8C62: CD8C98  		call	catch
8C65: CD8C98  		call	catch
8C68: CD8C98  		call	catch
8C6B: CD8C98  		call	catch
8C6E: CD8C98  		call	catch
8C71: CD8C98  		call	catch
8C74: CD8C98  		call	catch
8C77: CD8C98  		call	catch
8C7A: CD8C98  		call	catch
8C7D: CD8C98  		call	catch
8C80: CD8C98  		call	catch
8C83: CD8C98  		call	catch
8C86: CD8C98  		call	catch
8C89: CD8C98  		call	catch
8C8C: CD8C98  		call	catch
8C8F: CD8C98  		call	catch
8C92: CD8C98  		call	catch
8C95: CD8C98  		call	catch
8C98: CD8C98  		call	catch
8C9B: CD8C98  		call	catch
8C9E: CD8C98  		call	catch
8CA1: CD8C98  		call	catch
8CA4: CD8C98  		call	catch
8CA7: CD8C98  		call	catch
8CAA: CD8C98  		call	catch
8CAD: CD8C98  		call	catch
8CB0: CD8C98  		call	catch
8CB3: CD8C98  		call	catch
8CB6: CD8C98  		call	catch
8CB9: CD8C98  		call	catch
8CBC: CD8C98  		call	catch
8CBF: CD8C98  		call	catch
8CC2: CD8C98  		call	catch
8CC5: CD8C98  		call	catch
8CC8: CD8C98  		call	catch
8CCB: CD8C98  		call	catch
8CCE: CD8C98  		call	catch
8CD1: CD8C98  		call	catch
8CD4: CD8C98  		call	catch
8CD7: CD8C98  		call	catch
8CDA: CD8C98  		call	catch
8CDD: CD8C98  		call	catch
8CE0: CD8C98  		call	catch
8CE3: CD8C98  		call	catch
8CE6: CD8C98  		call	catch
8CE9: CD8C98  		call	catch
8CEC: CD8C98  		call	catch
8CEF: CD8C98  		call	catch
8CF2: CD8C98  		call	catch
8CF5: CD8C98  		call	catch
8CF8: CD8C98  		call	catch
8CFB: CD8C98  		call	catch
8CFE: CD8C98  		call	catch
8D01: CD8C98  		call	catch
8D04: CD8C98  		call	catch
8D07: CD8C98  		call	catch
8D0A: CD8C98  		call	catch
8D0D: CD8C98  		call	catch
8D10: CD8C98  		call	catch
8D13: CD8C98  		call	catch
8D16: CD8C98  		call	catch
8D19: CD8C98  		call	catch
8D1C: CD8C98  		call	catch
8D1F: CD8C98  		call	catch
8D22: CD8C98  		call	catch
8D25: CD8C98  		call	catch
8D28: CD8C98  		call	catch
8D2B: CD8C98  		call	catch
8D2E: CD8C98  		call	catch
8D31: CD8C98  		call	catch
8D34: CD8C98  		call	catch
8D37: CD8C98  		call	catch
8D3A: CD8C98  		call	catch
8D3D: CD8C98  		call	catch
8D40: CD8C98  		call	catch
8D43: CD8C98  		call	catch
8D46: CD8C98  		call	catch
8D49: CD8C98  		call	catch
8D4C: CD8C98  		call	catch
8D4F: CD8C98  		call	catch
8D52: CD8C98  		call	catch
8D55: CD8C98  		call	catch
8D58: CD8C98  		call	catch
8D5B: CD8C98  		call	catch
8D5E: CD8C98  		call	catch
8D61: CD8C98  		call	catch
8D64: CD8C98  		call	catch
8D67: CD8C98  		call	catch
8D6A: CD8C98  		call	catch
8D6D: CD8C98  		call	catch
8D70: CD8C98  		call	catch
8D73: CD8C98  		call	catch
8D76: CD8C98  		call	catch
8D79: CD8C98  		call	catch
8D7C: CD8C98  		call	catch
8D7F: CD8C98  		call	catch
8D82: CD8C98  		call	catch
8D85: CD8C98  		call	catch
8D88: CD8C98  		call	catch
8D8B: CD8C98  		call	catch
8D8E: CD8C98  		call	catch
8D91: CD8C98  		call	catch
8D94: CD8C98  		call	catch
8D97: CD8C98  		call	catch
8D9A: CD8C98  		call	catch
8D9D: CD8C98  		call	catch
8DA0: CD8C98  		call	catch
8DA3: CD8C98  		call	catch
8DA6: CD8C98  		call	catch
8DA9: CD8C98  		call	catch
8DAC: CD8C98  		call	catch
8DAF: CD8C98  		call	catch
8DB2: CD8C98  		call	catch
8DB5: CD8C98  		call	catch
8DB8: CD8C98  		call	catch
8DBB: CD8C98  		call	catch
8DBE: CD8C98  		call	catch
8DC1: CD8C98  		call	catch
8DC4: CD8C98  		call	catch
8DC7: CD8C98  		call	catch
8DCA: CD8C98  		call	catch
8DCD: CD8C98  		call	catch
8DD0: CD8C98  		call	catch
8DD3: CD8C98  		call	catch
8DD6: CD8C98  		call	catch
8DD9: CD8C98  		call	catch
8DDC: CD8C98  		call	catch
8DDF: CD8C98  		call	catch
8DE2: CD8C98  		call	catch
8DE5: CD8C98  		call	catch
8DE8: CD8C98  		call	catch
8DEB: CD8C98  		call	catch
8DEE: CD8C98  		call	catch
8DF1: CD8C98  		call	catch
8DF4: CD8C98  		call	catch
8DF7: CD8C98  		call	catch
8DFA: CD8C98  		call	catch
8DFD: CD8C98  		call	catch
8E00: CD8C98  		call	catch
8E03: CD8C98  		call	catch
8E06: CD8C98  		call	catch
8E09: CD8C98  		call	catch
8E0C: CD8C98  		call	catch
8E0F: CD8C98  		call	catch
8E12: CD8C98  		call	catch
8E15: CD8C98  		call	catch
8E18: CD8C98  		call	catch
8E1B: CD8C98  		call	catch
8E1E: CD8C98  		call	catch
8E21: CD8C98  		call	catch
8E24: CD8C98  		call	catch
8E27: CD8C98  		call	catch
8E2A: CD8C98  		call	catch
8E2D: CD8C98  		call	catch
8E30: CD8C98  		call	catch
8E33: CD8C98  		call	catch
8E36: CD8C98  		call	catch
8E39: CD8C98  		call	catch
8E3C: CD8C98  		call	catch
8E3F: CD8C98  		call	catch
8E42: CD8C98  		call	catch
8E45: CD8C98  		call	catch
8E48: CD8C98  		call	catch
8E4B: CD8C98  		call	catch
8E4E: CD8C98  		call	catch
8E51: CD8C98  		call	catch
8E54: CD8C98  		call	catch
8E57: CD8C98  		call	catch
8E5A: CD8C98  		call	catch
8E5D: CD8C98  		call	catch
8E60: CD8C98  		call	catch
8E63: CD8C98  		call	catch
8E66: CD8C98  		call	catch
8E69: CD8C98  		call	catch
8E6C: CD8C98  		call	catch
8E6F: CD8C98  		call	catch
8E72: CD8C98  		call	catch
8E75: CD8C98  		call	catch
8E78: CD8C98  		call	catch
8E7B: CD8C98  		call	catch
8E7E: CD8C98  		call	catch
8E81: CD8C98  		call	catch
8E84: CD8C98  		call	catch
8E87: CD8C98  		call	catch
8E8A: CD8C98  		call	catch
8E8D: CD8C98  		call	catch
8E90: CD8C98  		call	catch
8E93: CD8C98  		call	catch
8E96: CD8C98  		call	catch
8E99: CD8C98  		call	catch
8E9C: CD8C98  		call	catch
8E9F: CD8C98  		call	catch
8EA2: CD8C98  		call	catch
8EA5: CD8C98  		call	catch
8EA8: CD8C98  		call	catch
8EAB: CD8C98  		call	catch
8EAE: CD8C98  		call	catch
8EB1: CD8C98  		call	catch
8EB4: CD8C98  		call	catch
8EB7: CD8C98  		call	catch
8EBA: CD8C98  		call	catch
8EBD: CD8C98  		call	catch
8EC0: CD8C98  		call	catch
8EC3: CD8C98  		call	catch
8EC6: CD8C98  		call	catch
8EC9: CD8C98  		call	catch
8ECC: CD8C98  		call	catch
8ECF: CD8C98  		call	catch
8ED2: CD8C98  		call	catch
8ED5: CD8C98  		call	catch
8ED8: CD8C98  		call	catch
8EDB: CD8C98  		call	catch
8EDE: CD8C98  		call	catch
8EE1: CD8C98  		call	catch
8EE4: CD8C98  		call	catch
8EE7: CD8C98  		call	catch
8EEA: CD8C98  		call	catch
8EED: CD8C98  		call	catch
8EF0: CD8C98  		call	catch
8EF3: CD8C98  		call	catch
8EF6: CD8C98  		call	catch
8EF9: CD8C98  		call	catch
8EFC: CD8C98  		call	catch
8EFF: CD8C98  		call	catch
8F02: CD8C98  		call	catch
8F05: CD8C98  		call	catch
8F08: CD8C98  		call	catch
8F0B: CD8C98  		call	catch
8F0E: CD8C98  		call	catch
8F11: CD8C98  		call	catch
8F14: CD8C98  		call	catch
8F17: CD8C98  		call	catch
8F1A: CD8C98  		call	catch
8F1D: CD8C98  		call	catch
8F20: CD8C98  		call	catch
8F23: CD8C98  		call	catch
8F26: CD8C98  		call	catch
8F29: CD8C98  		call	catch
8F2C: CD8C98  		call	catch
8F2F: CD8C98  		call	catch
8F32: CD8C98  		call	catch
8F35: CD8C98  		call	catch
8F38: CD8C98  		call	catch
8F3B: CD8C98  		call	catch
8F3E: CD8C98  		call	catch
8F41: CD8C98  		call	catch
8F44: CD8C98  		call	catch
8F47: CD8C98  		call	catch
8F4A: CD8C98  		call	catch
8F4D: CD8C98  		call	catch
8F50: CD8C98  		call	catch
8F53: CD8C98  		call	catch
8F56: CD8C98  		call	catch
8F59: CD8C98  		call	catch
8F5C: CD8C98  		call	catch
8F5F: CD8C98  		call	catch
8F62: CD8C98  		call	catch
8F65: CD8C98  		call	catch
8F68: CD8C98  		call	catch
8F6B: CD8C98  		call	catch
8F6E: CD8C98  		call	catch
8F71: CD8C98  		call	catch
8F74: CD8C98  		call	catch
8F77: CD8C98  		call	catch
8F7A: CD8C98  		call	catch
8F7D: CD8C98  		call	catch
8F80: CD8C98  		call	catch
8F83: CD8C98  		call	catch
8F86: CD8C98  		call	catch
8F89: CD8C98  		call	catch
8F8C: CD8C98  		call	catch
8F8F: CD8C98  		call	catch
8F92: CD8C98  		call	catch
8F95: CD8C98  		call	catch
8F98: CD8C98  		call	catch
8F9B: CD8C98  		call	catch
8F9E: CD8C98  		call	catch
8FA1: CD8C98  		call	catch
8FA4: CD8C98  		call	catch
8FA7: CD8C98  		call	catch
8FAA: CD8C98  		call	catch
8FAD: CD8C98  		call	catch
8FB0: CD8C98  		call	catch
8FB3: CD8C98  		call	catch
8FB6: CD8C98  		call	catch
8FB9: CD8C98  		call	catch
8FBC: CD8C98  		call	catch
8FBF: CD8C98  		call	catch
8FC2: CD8C98  		call	catch
8FC5: CD8C98  		call	catch
8FC8: CD8C98  		call	catch
8FCB: CD8C98  		call	catch
8FCE: CD8C98  		call	catch
8FD1: CD8C98  		call	catch
8FD4: CD8C98  		call	catch
8FD7: CD8C98  		call	catch
8FDA: CD8C98  		call	catch
8FDD: CD8C98  		call	catch
8FE0: CD8C98  		call	catch
8FE3: CD8C98  		call	catch
8FE6: CD8C98  		call	catch
8FE9: CD8C98  		call	catch
8FEC: CD8C98  		call	catch
8FEF: CD8C98  		call	catch
8FF2: CD8C98  		call	catch
8FF5: CD8C98  		call	catch
8FF8: CD8C98  		call	catch
8FFB: CD8C98  		call	catch
8FFE: CD8C98  		call	catch
9001: CD8C98  		call	catch
9004: CD8C98  		call	catch
9007: CD8C98  		call	catch
900A: CD8C98  		call	catch
900D: CD8C98  		call	catch
9010: CD8C98  		call	catch
9013: CD8C98  		call	catch
9016: CD8C98  		call	catch
9019: CD8C98  		call	catch
901C: CD8C98  		call	catch
901F: CD8C98  		call	catch
9022: CD8C98  		call	catch
9025: CD8C98  		call	catch
9028: CD8C98  		call	catch
902B: CD8C98  		call	catch
902E: CD8C98  		call	catch
9031: CD8C98  		call	catch
9034: CD8C98  		call	catch
9037: CD8C98  		call	catch
903A: CD8C98  		call	catch
903D: CD8C98  		call	catch
9040: CD8C98  		call	catch
9043: CD8C98  		call	catch
9046: CD8C98  		call	catch
9049: CD8C98  		call	catch
904C: CD8C98  		call	catch
904F: CD8C98  		call	catch
9052: CD8C98  		call	catch
9055: CD8C98  		call	catch
9058: CD8C98  		call	catch
905B: CD8C98  		call	catch
905E: CD8C98  		call	catch
9061: CD8C98  		call	catch
9064: CD8C98  		call	catch
9067: CD8C98  		call	catch
906A: CD8C98  		call	catch
906D: CD8C98  		call	catch
9070: CD8C98  		call	catch
9073: CD8C98  		call	catch
9076: CD8C98  		call	catch
9079: CD8C98  		call	catch
907C: CD8C98  		call	catch
907F: CD8C98  		call	catch
9082: CD8C98  		call	catch
9085: CD8C98  		call	catch
9088: CD8C98  		call	catch
908B: CD8C98  		call	catch
908E: CD8C98  		call	catch
9091: CD8C98  		call	catch
9094: CD8C98  		call	catch
9097: CD8C98  		call	catch
909A: CD8C98  		call	catch
909D: CD8C98  		call	catch
90A0: CD8C98  		call	catch
90A3: CD8C98  		call	catch
90A6: CD8C98  		call	catch
90A9: CD8C98  		call	catch
90AC: CD8C98  		call	catch
90AF: CD8C98  		call	catch
90B2: CD8C98  		call	catch
90B5: CD8C98  		call	catch
90B8: CD8C98  		call	catch
90BB: CD8C98  		call	catch
90BE: CD8C98  		call	catch
90C1: CD8C98  		call	catch
90C4: CD8C98  		call	catch
90C7: CD8C98  		call	catch
90CA: CD8C98  		call	catch
90CD: CD8C98  		call	catch
90D0: CD8C98  		call	catch
90D3: CD8C98  		call	catch
90D6: CD8C98  		call	catch
90D9: CD8C98  		call	catch
90DC: CD8C98  		call	catch
90DF: CD8C98  		call	catch
90E2: CD8C98  		call	catch
90E5: CD8C98  		call	catch
90E8: CD8C98  		call	catch
90EB: CD8C98  		call	catch
90EE: CD8C98  		call	catch
90F1: CD8C98  		call	catch
90F4: CD8C98  		call	catch
90F7: CD8C98  		call	catch
90FA: CD8C98  		call	catch
90FD: CD8C98  		call	catch
9100: CD8C98  		call	catch
9103: CD8C98  		call	catch
9106: CD8C98  		call	catch
9109: CD8C98  		call	catch
910C: CD8C98  		call	catch
910F: CD8C98  		call	catch
9112: CD8C98  		call	catch
9115: CD8C98  		call	catch
9118: CD8C98  		call	catch
911B: CD8C98  		call	catch
911E: CD8C98  		call	catch
9121: CD8C98  		call	catch
9124: CD8C98  		call	catch
9127: CD8C98  		call	catch
912A: CD8C98  		call	catch
912D: CD8C98  		call	catch
9130: CD8C98  		call	catch
9133: CD8C98  		call	catch
9136: CD8C98  		call	catch
9139: CD8C98  		call	catch
913C: CD8C98  		call	catch
913F: CD8C98  		call	catch
9142: CD8C98  		call	catch
9145: CD8C98  		call	catch
9148: CD8C98  		call	catch
914B: CD8C98  		call	catch
914E: CD8C98  		call	catch
9151: CD8C98  		call	catch
9154: CD8C98  		call	catch
9157: CD8C98  		call	catch
915A: CD8C98  		call	catch
915D: CD8C98  		call	catch
9160: CD8C98  		call	catch
9163: CD8C98  		call	catch
9166: CD8C98  		call	catch
9169: CD8C98  		call	catch
916C: CD8C98  		call	catch
916F: CD8C98  		call	catch
9172: CD8C98  		call	catch
9175: CD8C98  		call	catch
9178: CD8C98  		call	catch
917B: CD8C98  		call	catch
917E: CD8C98  		call	catch
9181: CD8C98  		call	catch
9184: CD8C98  		call	catch
9187: CD8C98  		call	catch
918A: CD8C98  		call	catch
918D: CD8C98  		call	catch
9190: CD8C98  		call	catch
9193: CD8C98  		call	catch
9196: CD8C98  		call	catch
9199: CD8C98  		call	catch
919C: CD8C98  		call	catch
919F: CD8C98  		call	catch
91A2: CD8C98  		call	catch
91A5: CD8C98  		call	catch
91A8: CD8C98  		call	catch
91AB: CD8C98  		call	catch
91AE: CD8C98  		call	catch
91B1: CD8C98  		call	catch
91B4: CD8C98  		call	catch
91B7: CD8C98  		call	catch
91BA: CD8C98  		call	catch
91BD: CD8C98  		call	catch
91C0: CD8C98  		call	catch
91C3: CD8C98  		call	catch
91C6: CD8C98  		call	catch
91C9: CD8C98  		call	catch
91CC: CD8C98  		call	catch
91CF: CD8C98  		call	catch
91D2: CD8C98  		call	catch
91D5: CD8C98  		call	catch
91D8: CD8C98  		call	catch
91DB: CD8C98  		call	catch
91DE: CD8C98  		call	catch
91E1: CD8C98  		call	catch
91E4: CD8C98  		call	catch
91E7: CD8C98  		call	catch
91EA: CD8C98  		call	catch
91ED: CD8C98  		call	catch
91F0: CD8C98  		call	catch
91F3: CD8C98  		call	catch
91F6: CD8C98  		call	catch
91F9: CD8C98  		call	catch
91FC: CD8C98  		call	catch
91FF: CD8C98  		call	catch
9202: CD8C98  		call	catch
9205: CD8C98  		call	catch
9208: CD8C98  		call	catch
920B: CD8C98  		call	catch
920E: CD8C98  		call	catch
9211: CD8C98  		call	catch
9214: CD8C98  		call	catch
9217: CD8C98  		call	catch
921A: CD8C98  		call	catch
921D: CD8C98  		call	catch
9220: CD8C98  		call	catch
9223: CD8C98  		call	catch
9226: CD8C98  		call	catch
9229: CD8C98  		call	catch
922C: CD8C98  		call	catch
922F: CD8C98  		call	catch
9232: CD8C98  		call	catch
9235: CD8C98  		call	catch
9238: CD8C98  		call	catch
923B: CD8C98  		call	catch
923E: CD8C98  		call	catch
9241: CD8C98  		call	catch
9244: CD8C98  		call	catch
9247: CD8C98  		call	catch
924A: CD8C98  		call	catch
924D: CD8C98  		call	catch
9250: CD8C98  		call	catch
9253: CD8C98  		call	catch
9256: CD8C98  		call	catch
9259: CD8C98  		call	catch
925C: CD8C98  		call	catch
925F: CD8C98  		call	catch
9262: CD8C98  		call	catch
9265: CD8C98  		call	catch
9268: CD8C98  		call	catch
926B: CD8C98  		call	catch
926E: CD8C98  		call	catch
9271: CD8C98  		call	catch
9274: CD8C98  		call	catch
9277: CD8C98  		call	catch
927A: CD8C98  		call	catch
927D: CD8C98  		call	catch
9280: CD8C98  		call	catch
9283: CD8C98  		call	catch
9286: CD8C98  		call	catch
9289: CD8C98  		call	catch
928C: CD8C98  		call	catch
928F: CD8C98  		call	catch
9292: CD8C98  		call	catch
9295: CD8C98  		call	catch
9298: CD8C98  		call	catch
929B: CD8C98  		call	catch
929E: CD8C98  		call	catch
92A1: CD8C98  		call	catch
92A4: CD8C98  		call	catch
92A7: CD8C98  		call	catch
92AA: CD8C98  		call	catch
92AD: CD8C98  		call	catch
92B0: CD8C98  		call	catch
92B3: CD8C98  		call	catch
92B6: CD8C98  		call	catch
92B9: CD8C98  		call	catch
92BC: CD8C98  		call	catch
92BF: CD8C98  		call	catch
92C2: CD8C98  		call	catch
92C5: CD8C98  		call	catch
92C8: CD8C98  		call	catch
92CB: CD8C98  		call	catch
92CE: CD8C98  		call	catch
92D1: CD8C98  		call	catch
92D4: CD8C98  		call	catch
92D7: CD8C98  		call	catch
92DA: CD8C98  		call	catch
92DD: CD8C98  		call	catch
92E0: CD8C98  		call	catch
92E3: CD8C98  		call	catch
92E6: CD8C98  		call	catch
92E9: CD8C98  		call	catch
92EC: CD8C98  		call	catch
92EF: CD8C98  		call	catch
92F2: CD8C98  		call	catch
92F5: CD8C98  		call	catch
92F8: CD8C98  		call	catch
92FB: CD8C98  		call	catch
92FE: CD8C98  		call	catch
9301: CD8C98  		call	catch
9304: CD8C98  		call	catch
9307: CD8C98  		call	catch
930A: CD8C98  		call	catch
930D: CD8C98  		call	catch
9310: CD8C98  		call	catch
9313: CD8C98  		call	catch
9316: CD8C98  		call	catch
9319: CD8C98  		call	catch
931C: CD8C98  		call	catch
931F: CD8C98  		call	catch
9322: CD8C98  		call	catch
9325: CD8C98  		call	catch
9328: CD8C98  		call	catch
932B: CD8C98  		call	catch
932E: CD8C98  		call	catch
9331: CD8C98  		call	catch
9334: CD8C98  		call	catch
9337: CD8C98  		call	catch
933A: CD8C98  		call	catch
933D: CD8C98  		call	catch
9340: CD8C98  		call	catch
9343: CD8C98  		call	catch
9346: CD8C98  		call	catch
9349: CD8C98  		call	catch
934C: CD8C98  		call	catch
934F: CD8C98  		call	catch
9352: CD8C98  		call	catch
9355: CD8C98  		call	catch
9358: CD8C98  		call	catch
935B: CD8C98  		call	catch
935E: CD8C98  		call	catch
9361: CD8C98  		call	catch
9364: CD8C98  		call	catch
9367: CD8C98  		call	catch
936A: CD8C98  		call	catch
936D: CD8C98  		call	catch
9370: CD8C98  		call	catch
9373: CD8C98  		call	catch
9376: CD8C98  		call	catch
9379: CD8C98  		call	catch
937C: CD8C98  		call	catch
937F: CD8C98  		call	catch
9382: CD8C98  		call	catch
9385: CD8C98  		call	catch
9388: CD8C98  		call	catch
938B: CD8C98  		call	catch
938E: CD8C98  		call	catch
9391: CD8C98  		call	catch
9394: CD8C98  		call	catch
9397: CD8C98  		call	catch
939A: CD8C98  		call	catch
939D: CD8C98  		call	catch
93A0: CD8C98  		call	catch
93A3: CD8C98  		call	catch
93A6: CD8C98  		call	catch
93A9: CD8C98  		call	catch
93AC: CD8C98  		call	catch
93AF: CD8C98  		call	catch
93B2: CD8C98  		call	catch
93B5: CD8C98  		call	catch
93B8: CD8C98  		call	catch
93BB: CD8C98  		call	catch
93BE: CD8C98  		call	catch
93C1: CD8C98  		call	catch
93C4: CD8C98  		call	catch
93C7: CD8C98  		call	catch
93CA: CD8C98  		call	catch
93CD: CD8C98  		call	catch
93D0: CD8C98  		call	catch
93D3: CD8C98  		call	catch
93D6: CD8C98  		call	catch
93D9: CD8C98  		call	catch
93DC: CD8C98  		call	catch
93DF: CD8C98  		call	catch
93E2: CD8C98  		call	catch
93E5: CD8C98  		call	catch
93E8: CD8C98  		call	catch
93EB: CD8C98  		call	catch
93EE: CD8C98  		call	catch
93F1: CD8C98  		call	catch
93F4: CD8C98  		call	catch
93F7: CD8C98  		call	catch
93FA: CD8C98  		call	catch
93FD: CD8C98  		call	catch
9400: CD8C98  		call	catch
9403: CD8C98  		call	catch
9406: CD8C98  		call	catch
9409: CD8C98  		call	catch
940C: CD8C98  		call	catch
940F: CD8C98  		call	catch
9412: CD8C98  		call	catch
9415: CD8C98  		call	catch
9418: CD8C98  		call	catch
941B: CD8C98  		call	catch
941E: CD8C98  		call	catch
9421: CD8C98  		call	catch
9424: CD8C98  		call	catch
9427: CD8C98  		call	catch
942A: CD8C98  		call	catch
942D: CD8C98  		call	catch
9430: CD8C98  		call	catch
9433: CD8C98  		call	catch
9436: CD8C98  		call	catch
9439: CD8C98  		call	catch
943C: CD8C98  		call	catch
943F: CD8C98  		call	catch
9442: CD8C98  		call	catch
9445: CD8C98  		call	catch
9448: CD8C98  		call	catch
944B: CD8C98  		call	catch
944E: CD8C98  		call	catch
9451: CD8C98  		call	catch
9454: CD8C98  		call	catch
9457: CD8C98  		call	catch
945A: CD8C98  		call	catch
945D: CD8C98  		call	catch
9460: CD8C98  		call	catch
9463: CD8C98  		call	catch
9466: CD8C98  		call	catch
9469: CD8C98  		call	catch
946C: CD8C98  		call	catch
946F: CD8C98  		call	catch
9472: CD8C98  		call	catch
9475: CD8C98  		call	catch
9478: CD8C98  		call	catch
947B: CD8C98  		call	catch
947E: CD8C98  		call	catch
9481: CD8C98  		call	catch
9484: CD8C98  		call	catch
9487: CD8C98  		call	catch
948A: CD8C98  		call	catch
948D: CD8C98  		call	catch
9490: CD8C98  		call	catch
9493: CD8C98  		call	catch
9496: CD8C98  		call	catch
9499: CD8C98  		call	catch
949C: CD8C98  		call	catch
949F: CD8C98  		call	catch
94A2: CD8C98  		call	catch
94A5: CD8C98  		call	catch
94A8: CD8C98  		call	catch
94AB: CD8C98  		call	catch
94AE: CD8C98  		call	catch
94B1: CD8C98  		call	catch
94B4: CD8C98  		call	catch
94B7: CD8C98  		call	catch
94BA: CD8C98  		call	catch
94BD: CD8C98  		call	catch
94C0: CD8C98  		call	catch
94C3: CD8C98  		call	catch
94C6: CD8C98  		call	catch
94C9: CD8C98  		call	catch
94CC: CD8C98  		call	catch
94CF: CD8C98  		call	catch
94D2: CD8C98  		call	catch
94D5: CD8C98  		call	catch
94D8: CD8C98  		call	catch
94DB: CD8C98  		call	catch
94DE: CD8C98  		call	catch
94E1: CD8C98  		call	catch
94E4: CD8C98  		call	catch
94E7: CD8C98  		call	catch
94EA: CD8C98  		call	catch
94ED: CD8C98  		call	catch
94F0: CD8C98  		call	catch
94F3: CD8C98  		call	catch
94F6: CD8C98  		call	catch
94F9: CD8C98  		call	catch
94FC: CD8C98  		call	catch
94FF: CD8C98  		call	catch
9502: CD8C98  		call	catch
9505: CD8C98  		call	catch
9508: CD8C98  		call	catch
950B: CD8C98  		call	catch
950E: CD8C98  		call	catch
9511: CD8C98  		call	catch
9514: CD8C98  		call	catch
9517: CD8C98  		call	catch
951A: CD8C98  		call	catch
951D: CD8C98  		call	catch
9520: CD8C98  		call	catch
9523: CD8C98  		call	catch
9526: CD8C98  		call	catch
9529: CD8C98  		call	catch
952C: CD8C98  		call	catch
952F: CD8C98  		call	catch
9532: CD8C98  		call	catch
9535: CD8C98  		call	catch
9538: CD8C98  		call	catch
953B: CD8C98  		call	catch
953E: CD8C98  		call	catch
9541: CD8C98  		call	catch
9544: CD8C98  		call	catch
9547: CD8C98  		call	catch
954A: CD8C98  		call	catch
954D: CD8C98  		call	catch
9550: CD8C98  		call	catch
9553: CD8C98  		call	catch
9556: CD8C98  		call	catch
9559: CD8C98  		call	catch
955C: CD8C98  		call	catch
955F: CD8C98  		call	catch
9562: CD8C98  		call	catch
9565: CD8C98  		call	catch
9568: CD8C98  		call	catch
956B: CD8C98  		call	catch
956E: CD8C98  		call	catch
9571: CD8C98  		call	catch
9574: CD8C98  		call	catch
9577: CD8C98  		call	catch
957A: CD8C98  		call	catch
957D: CD8C98  		call	catch
9580: CD8C98  		call	catch
9583: CD8C98  		call	catch
9586: CD8C98  		call	catch
9589: CD8C98  		call	catch
958C: CD8C98  		call	catch
958F: CD8C98  		call	catch
9592: CD8C98  		call	catch
9595: CD8C98  		call	catch
9598: CD8C98  		call	catch
959B: CD8C98  		call	catch
959E: CD8C98  		call	catch
95A1: CD8C98  		call	catch
95A4: CD8C98  		call	catch
95A7: CD8C98  		call	catch
95AA: CD8C98  		call	catch
95AD: CD8C98  		call	catch
95B0: CD8C98  		call	catch
95B3: CD8C98  		call	catch
95B6: CD8C98  		call	catch
95B9: CD8C98  		call	catch
95BC: CD8C98  		call	catch
95BF: CD8C98  		call	catch
95C2: CD8C98  		call	catch
95C5: CD8C98  		call	catch
95C8: CD8C98  		call	catch
95CB: CD8C98  		call	catch
95CE: CD8C98  		call	catch
95D1: CD8C98  		call	catch
95D4: CD8C98  		call	catch
95D7: CD8C98  		call	catch
95DA: CD8C98  		call	catch
95DD: CD8C98  		call	catch
95E0: CD8C98  		call	catch
95E3: CD8C98  		call	catch
95E6: CD8C98  		call	catch
95E9: CD8C98  		call	catch
95EC: CD8C98  		call	catch
95EF: CD8C98  		call	catch
95F2: CD8C98  		call	catch
95F5: CD8C98  		call	catch
95F8: CD8C98  		call	catch
95FB: CD8C98  		call	catch
95FE: CD8C98  		call	catch
9601: CD8C98  		call	catch
9604: CD8C98  		call	catch
9607: CD8C98  		call	catch
960A: CD8C98  		call	catch
960D: CD8C98  		call	catch
9610: CD8C98  		call	catch
9613: CD8C98  		call	catch
9616: CD8C98  		call	catch
9619: CD8C98  		call	catch
961C: CD8C98  		call	catch
961F: CD8C98  		call	catch
9622: CD8C98  		call	catch
9625: CD8C98  		call	catch
9628: CD8C98  		call	catch
962B: CD8C98  		call	catch
962E: CD8C98  		call	catch
9631: CD8C98  		call	catch
9634: CD8C98  		call	catch
9637: CD8C98  		call	catch
963A: CD8C98  		call	catch
963D: CD8C98  		call	catch
9640: CD8C98  		call	catch
9643: CD8C98  		call	catch
9646: CD8C98  		call	catch
9649: CD8C98  		call	catch
964C: CD8C98  		call	catch
964F: CD8C98  		call	catch
9652: CD8C98  		call	catch
9655: CD8C98  		call	catch
9658: CD8C98  		call	catch
965B: CD8C98  		call	catch
965E: CD8C98  		call	catch
9661: CD8C98  		call	catch
9664: CD8C98  		call	catch
9667: CD8C98  		call	catch
966A: CD8C98  		call	catch
966D: CD8C98  		call	catch
9670: CD8C98  		call	catch
9673: CD8C98  		call	catch
9676: CD8C98  		call	catch
9679: CD8C98  		call	catch
967C: CD8C98  		call	catch
967F: CD8C98  		call	catch
9682: CD8C98  		call	catch
9685: CD8C98  		call	catch
9688: CD8C98  		call	catch
968B: CD8C98  		call	catch
968E: CD8C98  		call	catch
9691: CD8C98  		call	catch
9694: CD8C98  		call	catch
9697: CD8C98  		call	catch
969A: CD8C98  		call	catch
969D: CD8C98  		call	catch
96A0: CD8C98  		call	catch
96A3: CD8C98  		call	catch
96A6: CD8C98  		call	catch
96A9: CD8C98  		call	catch
96AC: CD8C98  		call	catch
96AF: CD8C98  		call	catch
96B2: CD8C98  		call	catch
96B5: CD8C98  		call	catch
96B8: CD8C98  		call	catch
96BB: CD8C98  		call	catch
96BE: CD8C98  		call	catch
96C1: CD8C98  		call	catch
96C4: CD8C98  		call	catch
96C7: CD8C98  		call	catch
96CA: CD8C98  		call	catch
96CD: CD8C98  		call	catch
96D0: CD8C98  		call	catch
96D3: CD8C98  		call	catch
96D6: CD8C98  		call	catch
96D9: CD8C98  		call	catch
96DC: CD8C98  		call	catch
96DF: CD8C98  		call	catch
96E2: CD8C98  		call	catch
96E5: CD8C98  		call	catch
96E8: CD8C98  		call	catch
96EB: CD8C98  		call	catch
96EE: CD8C98  		call	catch
96F1: CD8C98  		call	catch
96F4: CD8C98  		call	catch
96F7: CD8C98  		call	catch
96FA: CD8C98  		call	catch
96FD: CD8C98  		call	catch
9700: CD8C98  		call	catch
9703: CD8C98  		call	catch
9706: CD8C98  		call	catch
9709: CD8C98  		call	catch
970C: CD8C98  		call	catch
970F: CD8C98  		call	catch
9712: CD8C98  		call	catch
9715: CD8C98  		call	catch
9718: CD8C98  		call	catch
971B: CD8C98  		call	catch
971E: CD8C98  		call	catch
9721: CD8C98  		call	catch
9724: CD8C98  		call	catch
9727: CD8C98  		call	catch
972A: CD8C98  		call	catch
972D: CD8C98  		call	catch
9730: CD8C98  		call	catch
9733: CD8C98  		call	catch
9736: CD8C98  		call	catch
9739: CD8C98  		call	catch
973C: CD8C98  		call	catch
973F: CD8C98  		call	catch
9742: CD8C98  		call	catch
9745: CD8C98  		call	catch
9748: CD8C98  		call	catch
974B: CD8C98  		call	catch
974E: CD8C98  		call	catch
9751: CD8C98  		call	catch
9754: CD8C98  		call	catch
9757: CD8C98  		call	catch
975A: CD8C98  		call	catch
975D: CD8C98  		call	catch
9760: CD8C98  		call	catch
9763: CD8C98  		call	catch
9766: CD8C98  		call	catch
9769: CD8C98  		call	catch
976C: CD8C98  		call	catch
976F: CD8C98  		call	catch
9772: CD8C98  		call	catch
9775: CD8C98  		call	catch
9778: CD8C98  		call	catch
977B: CD8C98  		call	catch
977E: CD8C98  		call	catch
9781: CD8C98  		call	catch
9784: CD8C98  		call	catch
9787: CD8C98  		call	catch
978A: CD8C98  		call	catch
978D: CD8C98  		call	catch
9790: CD8C98  		call	catch
9793: CD8C98  		call	catch
9796: CD8C98  		call	catch
9799: CD8C98  		call	catch
979C: CD8C98  		call	catch
979F: CD8C98  		call	catch
97A2: CD8C98  		call	catch
97A5: CD8C98  		call	catch
97A8: CD8C98  		call	catch
97AB: CD8C98  		call	catch
97AE: CD8C98  		call	catch
97B1: CD8C98  		call	catch
97B4: CD8C98  		call	catch
97B7: CD8C98  		call	catch
97BA: CD8C98  		call	catch
97BD: CD8C98  		call	catch
97C0: CD8C98  		call	catch
97C3: CD8C98  		call	catch
97C6: CD8C98  		call	catch
97C9: CD8C98  		call	catch
97CC: CD8C98  		call	catch
97CF: CD8C98  		call	catch
97D2: CD8C98  		call	catch
97D5: CD8C98  		call	catch
97D8: CD8C98  		call	catch
97DB: CD8C98  		call	catch
97DE: CD8C98  		call	catch
97E1: CD8C98  		call	catch
97E4: CD8C98  		call	catch
97E7: CD8C98  		call	catch
97EA: CD8C98  		call	catch
97ED: CD8C98  		call	catch
97F0: CD8C98  		call	catch
97F3: CD8C98  		call	catch
97F6: CD8C98  		call	catch
97F9: CD8C98  		call	catch
97FC: CD8C98  		call	catch
97FF: CD8C98  		call	catch
9802: CD8C98  		call	catch
9805: CD8C98  		call	catch
9808: CD8C98  		call	catch
980B: CD8C98  		call	catch
980E: CD8C98  		call	catch
9811: CD8C98  		call	catch
9814: CD8C98  		call	catch
9817: CD8C98  		call	catch
981A: CD8C98  		call	catch
981D: CD8C98  		call	catch
9820: CD8C98  		call	catch
9823: CD8C98  		call	catch
9826: CD8C98  		call	catch
9829: CD8C98  		call	catch
982C: CD8C98  		call	catch
982F: CD8C98  		call	catch
9832: CD8C98  		call	catch
9835: CD8C98  		call	catch
9838: CD8C98  		call	catch
983B: CD8C98  		call	catch
983E: CD8C98  		call	catch
9841: CD8C98  		call	catch
9844: CD8C98  		call	catch
9847: CD8C98  		call	catch
984A: CD8C98  		call	catch
984D: CD8C98  		call	catch
9850: CD8C98  		call	catch
9853: CD8C98  		call	catch
9856: CD8C98  		call	catch
9859: CD8C98  		call	catch
985C: CD8C98  		call	catch
985F: CD8C98  		call	catch
9862: CD8C98  		call	catch
9865: CD8C98  		call	catch
9868: CD8C98  		call	catch
986B: CD8C98  		call	catch
986E: CD8C98  		call	catch
9871: CD8C98  		call	catch
9874: CD8C98  		call	catch
9877: CD8C98  		call	catch
987A: CD8C98  		call	catch
987D: CD8C98  		call	catch
9880: CD8C98  		call	catch
9883: CD8C98  		call	catch
9886: CD8C98  		call	catch
9889: CD8C98  		call	catch
              		
              		
988C: F3      	catch:	di	
              		
988D: 21DF98  		ld	hl,result
9890: 22E898  		ld	(pointer),hl
9893: E1      		pop	hl
9894: 2B      		dec	hl
9895: 2B      		dec	hl
9896: 2B      		dec	hl
9897: 310001  		ld	sp,0x0100
989A: CDA898  		call	puth
              		
989D: 0E09    		ld	c,b_print
989F: 11CD98  		ld	de,ctchmsg
98A2: CD0500  		call	bdos
              		
98A5: C30000  		jp	0
              		
              	; Print decimal
              	; hl = value to print
              	;
              	; uses: all
98A8: 4C      	puth:	ld	c,h
98A9: CDAD98  		call	puth1
98AC: 4D      		ld	c,l
              	
98AD: 79      	puth1:	ld	a,c
98AE: 1F      		rra
98AF: 1F      		rra
98B0: 1F      		rra
98B1: 1F      		rra
98B2: CDB698  		call	puth2
98B5: 79      		ld	a,c
              		
              		
98B6: E60F    	puth2:	and	0x0F
98B8: C690    		add	a,0x90
98BA: 27      		daa
98BB: CE40    		adc	a,0x40
98BD: 27      		daa
              	
              	; Actually print character out
              	; a = character to output to string
              	;
              	; uses: none
98BE: C5      	out:	push	bc
98BF: D5      		push	de
98C0: E5      		push	hl
98C1: 2AE898  		ld	hl,(pointer)
98C4: 77      		ld	(hl),a
98C5: 23      		inc	hl
98C6: 22E898  		ld	(pointer),hl
98C9: E1      		pop	hl
98CA: D1      		pop	de
98CB: C1      		pop	bc
98CC: C9      		ret
              		
98CD:         	ctchmsg:	
98CD: 0A0D4341		defb	0x0A,0x0D,'CAUGHT CALL AT: '
98D1: 55474854	
98D5: 2043414C	
98D9: 4C204154	
98DD: 3A20    	
98DF:         	result:
98DF: 20202020		defb	'        $'
98E3: 20202020	
98E7: 24      	
98E8:         	pointer:
98E8: DF98    		defw	result


; +++ segments +++

#CODE          = $0100 =   256,  size = $97EA = 38890

; +++ global symbols +++

_end    = $98EA = 39146          probe.asm:19 (unused)
_size   = $97EA = 38890          probe.asm:19 (unused)
b_close = $0010 =    16          probe.asm:12 (unused)
b_coin  = $0001 =     1          probe.asm:8 (unused)
b_cout  = $0002 =     2          probe.asm:9 (unused)
b_dma   = $001A =    26          probe.asm:16 (unused)
b_make  = $0016 =    22          probe.asm:15 (unused)
b_open  = $000F =    15          probe.asm:11 (unused)
b_print = $0009 =     9          probe.asm:10
b_read  = $0014 =    20          probe.asm:13 (unused)
b_write = $0015 =    21          probe.asm:14 (unused)
bdos    = $0005 =     5          probe.asm:5
catch   = $988C = 39052          probe.asm:12955
ctchmsg = $98CD = 39117          probe.asm:13011
fcb     = $005C =    92          probe.asm:6 (unused)
out     = $98BE = 39102          probe.asm:12999 (unused)
pointer = $98E8 = 39144          probe.asm:13015
puth    = $98A8 = 39080          probe.asm:12976
puth1   = $98AD = 39085          probe.asm:12980
puth2   = $98B6 = 39094          probe.asm:12989
result  = $98DF = 39135          probe.asm:13013


total time: 0.0349 sec.
no errors
